
ESDLab1.elf:     file format elf32-avr

Sections:
Idx Name          Size      VMA       LMA       File off  Algn
  0 .text         00002d60  00000000  00000000  00000094  2**1
                  CONTENTS, ALLOC, LOAD, READONLY, CODE
  1 .data         00000066  00802000  00002d60  00002df4  2**0
                  CONTENTS, ALLOC, LOAD, DATA
  2 .bss          00000063  00802066  00802066  00002e5a  2**0
                  ALLOC
  3 .comment      0000005c  00000000  00000000  00002e5a  2**0
                  CONTENTS, READONLY
  4 .note.gnu.avr.deviceinfo 00000040  00000000  00000000  00002eb8  2**2
                  CONTENTS, READONLY
  5 .debug_aranges 00000400  00000000  00000000  00002ef8  2**3
                  CONTENTS, READONLY, DEBUGGING
  6 .debug_info   0000e844  00000000  00000000  000032f8  2**0
                  CONTENTS, READONLY, DEBUGGING
  7 .debug_abbrev 000049a0  00000000  00000000  00011b3c  2**0
                  CONTENTS, READONLY, DEBUGGING
  8 .debug_line   00005aca  00000000  00000000  000164dc  2**0
                  CONTENTS, READONLY, DEBUGGING
  9 .debug_frame  00001720  00000000  00000000  0001bfa8  2**2
                  CONTENTS, READONLY, DEBUGGING
 10 .debug_str    0002f477  00000000  00000000  0001d6c8  2**0
                  CONTENTS, READONLY, DEBUGGING
 11 .debug_loc    00005420  00000000  00000000  0004cb3f  2**0
                  CONTENTS, READONLY, DEBUGGING
 12 .debug_ranges 000003b8  00000000  00000000  00051f60  2**3
                  CONTENTS, READONLY, DEBUGGING
 13 .debug_macro  0000a55b  00000000  00000000  00052318  2**0
                  CONTENTS, READONLY, DEBUGGING

Disassembly of section .text:

00000000 <__vectors>:
       0:	f9 c0       	rjmp	.+498    	; 0x1f4 <__ctors_end>
       2:	00 00       	nop
       4:	1d c1       	rjmp	.+570    	; 0x240 <__bad_interrupt>
       6:	00 00       	nop
       8:	1b c1       	rjmp	.+566    	; 0x240 <__bad_interrupt>
       a:	00 00       	nop
       c:	19 c1       	rjmp	.+562    	; 0x240 <__bad_interrupt>
       e:	00 00       	nop
      10:	17 c1       	rjmp	.+558    	; 0x240 <__bad_interrupt>
      12:	00 00       	nop
      14:	15 c1       	rjmp	.+554    	; 0x240 <__bad_interrupt>
      16:	00 00       	nop
      18:	13 c1       	rjmp	.+550    	; 0x240 <__bad_interrupt>
      1a:	00 00       	nop
      1c:	11 c1       	rjmp	.+546    	; 0x240 <__bad_interrupt>
      1e:	00 00       	nop
      20:	0f c1       	rjmp	.+542    	; 0x240 <__bad_interrupt>
      22:	00 00       	nop
      24:	0d c1       	rjmp	.+538    	; 0x240 <__bad_interrupt>
      26:	00 00       	nop
      28:	0b c1       	rjmp	.+534    	; 0x240 <__bad_interrupt>
      2a:	00 00       	nop
      2c:	09 c1       	rjmp	.+530    	; 0x240 <__bad_interrupt>
      2e:	00 00       	nop
      30:	07 c1       	rjmp	.+526    	; 0x240 <__bad_interrupt>
      32:	00 00       	nop
      34:	05 c1       	rjmp	.+522    	; 0x240 <__bad_interrupt>
      36:	00 00       	nop
      38:	8c c2       	rjmp	.+1304   	; 0x552 <__vector_14>
      3a:	00 00       	nop
      3c:	c2 c2       	rjmp	.+1412   	; 0x5c2 <__vector_15>
      3e:	00 00       	nop
      40:	f8 c2       	rjmp	.+1520   	; 0x632 <__vector_16>
      42:	00 00       	nop
      44:	2e c3       	rjmp	.+1628   	; 0x6a2 <__vector_17>
      46:	00 00       	nop
      48:	64 c3       	rjmp	.+1736   	; 0x712 <__vector_18>
      4a:	00 00       	nop
      4c:	9a c3       	rjmp	.+1844   	; 0x782 <__vector_19>
      4e:	00 00       	nop
      50:	d0 c3       	rjmp	.+1952   	; 0x7f2 <__vector_20>
      52:	00 00       	nop
      54:	06 c4       	rjmp	.+2060   	; 0x862 <__vector_21>
      56:	00 00       	nop
      58:	3c c4       	rjmp	.+2168   	; 0x8d2 <__vector_22>
      5a:	00 00       	nop
      5c:	72 c4       	rjmp	.+2276   	; 0x942 <__vector_23>
      5e:	00 00       	nop
      60:	ef c0       	rjmp	.+478    	; 0x240 <__bad_interrupt>
      62:	00 00       	nop
      64:	ed c0       	rjmp	.+474    	; 0x240 <__bad_interrupt>
      66:	00 00       	nop
      68:	eb c0       	rjmp	.+470    	; 0x240 <__bad_interrupt>
      6a:	00 00       	nop
      6c:	e9 c0       	rjmp	.+466    	; 0x240 <__bad_interrupt>
      6e:	00 00       	nop
      70:	e7 c0       	rjmp	.+462    	; 0x240 <__bad_interrupt>
      72:	00 00       	nop
      74:	e5 c0       	rjmp	.+458    	; 0x240 <__bad_interrupt>
      76:	00 00       	nop
      78:	e3 c0       	rjmp	.+454    	; 0x240 <__bad_interrupt>
      7a:	00 00       	nop
      7c:	e1 c0       	rjmp	.+450    	; 0x240 <__bad_interrupt>
      7e:	00 00       	nop
      80:	df c0       	rjmp	.+446    	; 0x240 <__bad_interrupt>
      82:	00 00       	nop
      84:	dd c0       	rjmp	.+442    	; 0x240 <__bad_interrupt>
      86:	00 00       	nop
      88:	db c0       	rjmp	.+438    	; 0x240 <__bad_interrupt>
      8a:	00 00       	nop
      8c:	d9 c0       	rjmp	.+434    	; 0x240 <__bad_interrupt>
      8e:	00 00       	nop
      90:	d7 c0       	rjmp	.+430    	; 0x240 <__bad_interrupt>
      92:	00 00       	nop
      94:	d5 c0       	rjmp	.+426    	; 0x240 <__bad_interrupt>
      96:	00 00       	nop
      98:	d3 c0       	rjmp	.+422    	; 0x240 <__bad_interrupt>
      9a:	00 00       	nop
      9c:	0c 94 d5 0e 	jmp	0x1daa	; 0x1daa <__vector_39>
      a0:	0c 94 12 0f 	jmp	0x1e24	; 0x1e24 <__vector_40>
      a4:	0c 94 4f 0f 	jmp	0x1e9e	; 0x1e9e <__vector_41>
      a8:	0c 94 8c 0f 	jmp	0x1f18	; 0x1f18 <__vector_42>
      ac:	c9 c0       	rjmp	.+402    	; 0x240 <__bad_interrupt>
      ae:	00 00       	nop
      b0:	c7 c0       	rjmp	.+398    	; 0x240 <__bad_interrupt>
      b2:	00 00       	nop
      b4:	c5 c0       	rjmp	.+394    	; 0x240 <__bad_interrupt>
      b6:	00 00       	nop
      b8:	c3 c0       	rjmp	.+390    	; 0x240 <__bad_interrupt>
      ba:	00 00       	nop
      bc:	aa c6       	rjmp	.+3412   	; 0xe12 <__vector_47>
      be:	00 00       	nop
      c0:	e0 c6       	rjmp	.+3520   	; 0xe82 <__vector_48>
      c2:	00 00       	nop
      c4:	16 c7       	rjmp	.+3628   	; 0xef2 <__vector_49>
      c6:	00 00       	nop
      c8:	4c c7       	rjmp	.+3736   	; 0xf62 <__vector_50>
      ca:	00 00       	nop
      cc:	82 c7       	rjmp	.+3844   	; 0xfd2 <__vector_51>
      ce:	00 00       	nop
      d0:	b8 c7       	rjmp	.+3952   	; 0x1042 <__vector_52>
      d2:	00 00       	nop
      d4:	ee c7       	rjmp	.+4060   	; 0x10b2 <__vector_53>
      d6:	00 00       	nop
      d8:	0c 94 91 08 	jmp	0x1122	; 0x1122 <__vector_54>
      dc:	0c 94 c9 08 	jmp	0x1192	; 0x1192 <__vector_55>
      e0:	0c 94 01 09 	jmp	0x1202	; 0x1202 <__vector_56>
      e4:	ad c0       	rjmp	.+346    	; 0x240 <__bad_interrupt>
      e6:	00 00       	nop
      e8:	ab c0       	rjmp	.+342    	; 0x240 <__bad_interrupt>
      ea:	00 00       	nop
      ec:	a9 c0       	rjmp	.+338    	; 0x240 <__bad_interrupt>
      ee:	00 00       	nop
      f0:	a7 c0       	rjmp	.+334    	; 0x240 <__bad_interrupt>
      f2:	00 00       	nop
      f4:	a5 c0       	rjmp	.+330    	; 0x240 <__bad_interrupt>
      f6:	00 00       	nop
      f8:	a3 c0       	rjmp	.+326    	; 0x240 <__bad_interrupt>
      fa:	00 00       	nop
      fc:	a1 c0       	rjmp	.+322    	; 0x240 <__bad_interrupt>
      fe:	00 00       	nop
     100:	9f c0       	rjmp	.+318    	; 0x240 <__bad_interrupt>
     102:	00 00       	nop
     104:	9d c0       	rjmp	.+314    	; 0x240 <__bad_interrupt>
     106:	00 00       	nop
     108:	9b c0       	rjmp	.+310    	; 0x240 <__bad_interrupt>
     10a:	00 00       	nop
     10c:	99 c0       	rjmp	.+306    	; 0x240 <__bad_interrupt>
     10e:	00 00       	nop
     110:	97 c0       	rjmp	.+302    	; 0x240 <__bad_interrupt>
     112:	00 00       	nop
     114:	95 c0       	rjmp	.+298    	; 0x240 <__bad_interrupt>
     116:	00 00       	nop
     118:	93 c0       	rjmp	.+294    	; 0x240 <__bad_interrupt>
     11a:	00 00       	nop
     11c:	0c 94 e1 0d 	jmp	0x1bc2	; 0x1bc2 <__vector_71>
     120:	0c 94 1e 0e 	jmp	0x1c3c	; 0x1c3c <__vector_72>
     124:	0c 94 5b 0e 	jmp	0x1cb6	; 0x1cb6 <__vector_73>
     128:	0c 94 98 0e 	jmp	0x1d30	; 0x1d30 <__vector_74>
     12c:	89 c0       	rjmp	.+274    	; 0x240 <__bad_interrupt>
     12e:	00 00       	nop
     130:	87 c0       	rjmp	.+270    	; 0x240 <__bad_interrupt>
     132:	00 00       	nop
     134:	3e c4       	rjmp	.+2172   	; 0x9b2 <__vector_77>
     136:	00 00       	nop
     138:	74 c4       	rjmp	.+2280   	; 0xa22 <__vector_78>
     13a:	00 00       	nop
     13c:	aa c4       	rjmp	.+2388   	; 0xa92 <__vector_79>
     13e:	00 00       	nop
     140:	e0 c4       	rjmp	.+2496   	; 0xb02 <__vector_80>
     142:	00 00       	nop
     144:	16 c5       	rjmp	.+2604   	; 0xb72 <__vector_81>
     146:	00 00       	nop
     148:	4c c5       	rjmp	.+2712   	; 0xbe2 <__vector_82>
     14a:	00 00       	nop
     14c:	82 c5       	rjmp	.+2820   	; 0xc52 <__vector_83>
     14e:	00 00       	nop
     150:	b8 c5       	rjmp	.+2928   	; 0xcc2 <__vector_84>
     152:	00 00       	nop
     154:	ee c5       	rjmp	.+3036   	; 0xd32 <__vector_85>
     156:	00 00       	nop
     158:	24 c6       	rjmp	.+3144   	; 0xda2 <__vector_86>
     15a:	00 00       	nop
     15c:	71 c0       	rjmp	.+226    	; 0x240 <__bad_interrupt>
     15e:	00 00       	nop
     160:	6f c0       	rjmp	.+222    	; 0x240 <__bad_interrupt>
     162:	00 00       	nop
     164:	6d c0       	rjmp	.+218    	; 0x240 <__bad_interrupt>
     166:	00 00       	nop
     168:	6b c0       	rjmp	.+214    	; 0x240 <__bad_interrupt>
     16a:	00 00       	nop
     16c:	69 c0       	rjmp	.+210    	; 0x240 <__bad_interrupt>
     16e:	00 00       	nop
     170:	67 c0       	rjmp	.+206    	; 0x240 <__bad_interrupt>
     172:	00 00       	nop
     174:	65 c0       	rjmp	.+202    	; 0x240 <__bad_interrupt>
     176:	00 00       	nop
     178:	63 c0       	rjmp	.+198    	; 0x240 <__bad_interrupt>
     17a:	00 00       	nop
     17c:	61 c0       	rjmp	.+194    	; 0x240 <__bad_interrupt>
     17e:	00 00       	nop
     180:	5f c0       	rjmp	.+190    	; 0x240 <__bad_interrupt>
     182:	00 00       	nop
     184:	5d c0       	rjmp	.+186    	; 0x240 <__bad_interrupt>
     186:	00 00       	nop
     188:	5b c0       	rjmp	.+182    	; 0x240 <__bad_interrupt>
     18a:	00 00       	nop
     18c:	59 c0       	rjmp	.+178    	; 0x240 <__bad_interrupt>
     18e:	00 00       	nop
     190:	57 c0       	rjmp	.+174    	; 0x240 <__bad_interrupt>
     192:	00 00       	nop
     194:	55 c0       	rjmp	.+170    	; 0x240 <__bad_interrupt>
     196:	00 00       	nop
     198:	53 c0       	rjmp	.+166    	; 0x240 <__bad_interrupt>
     19a:	00 00       	nop
     19c:	51 c0       	rjmp	.+162    	; 0x240 <__bad_interrupt>
     19e:	00 00       	nop
     1a0:	4f c0       	rjmp	.+158    	; 0x240 <__bad_interrupt>
     1a2:	00 00       	nop
     1a4:	4d c0       	rjmp	.+154    	; 0x240 <__bad_interrupt>
     1a6:	00 00       	nop
     1a8:	4b c0       	rjmp	.+150    	; 0x240 <__bad_interrupt>
     1aa:	00 00       	nop
     1ac:	49 c0       	rjmp	.+146    	; 0x240 <__bad_interrupt>
     1ae:	00 00       	nop
     1b0:	0c 94 39 09 	jmp	0x1272	; 0x1272 <__vector_108>
     1b4:	0c 94 71 09 	jmp	0x12e2	; 0x12e2 <__vector_109>
     1b8:	0c 94 a9 09 	jmp	0x1352	; 0x1352 <__vector_110>
     1bc:	0c 94 e1 09 	jmp	0x13c2	; 0x13c2 <__vector_111>
     1c0:	0c 94 19 0a 	jmp	0x1432	; 0x1432 <__vector_112>
     1c4:	0c 94 51 0a 	jmp	0x14a2	; 0x14a2 <__vector_113>
     1c8:	0c 94 89 0a 	jmp	0x1512	; 0x1512 <__vector_114>
     1cc:	0c 94 c1 0a 	jmp	0x1582	; 0x1582 <__vector_115>
     1d0:	0c 94 f9 0a 	jmp	0x15f2	; 0x15f2 <__vector_116>
     1d4:	0c 94 31 0b 	jmp	0x1662	; 0x1662 <__vector_117>
     1d8:	33 c0       	rjmp	.+102    	; 0x240 <__bad_interrupt>
     1da:	00 00       	nop
     1dc:	31 c0       	rjmp	.+98     	; 0x240 <__bad_interrupt>
     1de:	00 00       	nop
     1e0:	2f c0       	rjmp	.+94     	; 0x240 <__bad_interrupt>
     1e2:	00 00       	nop
     1e4:	2d c0       	rjmp	.+90     	; 0x240 <__bad_interrupt>
     1e6:	00 00       	nop
     1e8:	2b c0       	rjmp	.+86     	; 0x240 <__bad_interrupt>
     1ea:	00 00       	nop
     1ec:	29 c0       	rjmp	.+82     	; 0x240 <__bad_interrupt>
     1ee:	00 00       	nop
     1f0:	27 c0       	rjmp	.+78     	; 0x240 <__bad_interrupt>
	...

000001f4 <__ctors_end>:
     1f4:	11 24       	eor	r1, r1
     1f6:	1f be       	out	0x3f, r1	; 63
     1f8:	cf ef       	ldi	r28, 0xFF	; 255
     1fa:	cd bf       	out	0x3d, r28	; 61
     1fc:	df e3       	ldi	r29, 0x3F	; 63
     1fe:	de bf       	out	0x3e, r29	; 62
     200:	00 e0       	ldi	r16, 0x00	; 0
     202:	0c bf       	out	0x3c, r16	; 60
     204:	18 be       	out	0x38, r1	; 56
     206:	19 be       	out	0x39, r1	; 57
     208:	1a be       	out	0x3a, r1	; 58
     20a:	1b be       	out	0x3b, r1	; 59

0000020c <__do_copy_data>:
     20c:	10 e2       	ldi	r17, 0x20	; 32
     20e:	a0 e0       	ldi	r26, 0x00	; 0
     210:	b0 e2       	ldi	r27, 0x20	; 32
     212:	e0 e6       	ldi	r30, 0x60	; 96
     214:	fd e2       	ldi	r31, 0x2D	; 45
     216:	00 e0       	ldi	r16, 0x00	; 0
     218:	0b bf       	out	0x3b, r16	; 59
     21a:	02 c0       	rjmp	.+4      	; 0x220 <__do_copy_data+0x14>
     21c:	07 90       	elpm	r0, Z+
     21e:	0d 92       	st	X+, r0
     220:	a6 36       	cpi	r26, 0x66	; 102
     222:	b1 07       	cpc	r27, r17
     224:	d9 f7       	brne	.-10     	; 0x21c <__do_copy_data+0x10>
     226:	1b be       	out	0x3b, r1	; 59

00000228 <__do_clear_bss>:
     228:	20 e2       	ldi	r18, 0x20	; 32
     22a:	a6 e6       	ldi	r26, 0x66	; 102
     22c:	b0 e2       	ldi	r27, 0x20	; 32
     22e:	01 c0       	rjmp	.+2      	; 0x232 <.do_clear_bss_start>

00000230 <.do_clear_bss_loop>:
     230:	1d 92       	st	X+, r1

00000232 <.do_clear_bss_start>:
     232:	a9 3c       	cpi	r26, 0xC9	; 201
     234:	b2 07       	cpc	r27, r18
     236:	e1 f7       	brne	.-8      	; 0x230 <.do_clear_bss_loop>
     238:	0e 94 b3 12 	call	0x2566	; 0x2566 <main>
     23c:	0c 94 ae 16 	jmp	0x2d5c	; 0x2d5c <_exit>

00000240 <__bad_interrupt>:
     240:	df ce       	rjmp	.-578    	; 0x0 <__vectors>

00000242 <adc_set_callback>:
     242:	cf 93       	push	r28
     244:	df 93       	push	r29
     246:	1f 92       	push	r1
     248:	cd b7       	in	r28, 0x3d	; 61
     24a:	de b7       	in	r29, 0x3e	; 62
     24c:	2f b7       	in	r18, 0x3f	; 63
     24e:	29 83       	std	Y+1, r18	; 0x01
     250:	f8 94       	cli
     252:	49 81       	ldd	r20, Y+1	; 0x01
     254:	28 2f       	mov	r18, r24
     256:	39 2f       	mov	r19, r25
     258:	21 15       	cp	r18, r1
     25a:	82 e0       	ldi	r24, 0x02	; 2
     25c:	38 07       	cpc	r19, r24
     25e:	29 f4       	brne	.+10     	; 0x26a <adc_set_callback+0x28>
     260:	60 93 c1 20 	sts	0x20C1, r22	; 0x8020c1 <adca_callback>
     264:	70 93 c2 20 	sts	0x20C2, r23	; 0x8020c2 <adca_callback+0x1>
     268:	07 c0       	rjmp	.+14     	; 0x278 <adc_set_callback+0x36>
     26a:	20 34       	cpi	r18, 0x40	; 64
     26c:	32 40       	sbci	r19, 0x02	; 2
     26e:	21 f4       	brne	.+8      	; 0x278 <adc_set_callback+0x36>
     270:	60 93 bf 20 	sts	0x20BF, r22	; 0x8020bf <adcb_callback>
     274:	70 93 c0 20 	sts	0x20C0, r23	; 0x8020c0 <adcb_callback+0x1>
     278:	4f bf       	out	0x3f, r20	; 63
     27a:	0f 90       	pop	r0
     27c:	df 91       	pop	r29
     27e:	cf 91       	pop	r28
     280:	08 95       	ret

00000282 <adc_enable_clock>:
     282:	81 15       	cp	r24, r1
     284:	22 e0       	ldi	r18, 0x02	; 2
     286:	92 07       	cpc	r25, r18
     288:	69 f4       	brne	.+26     	; 0x2a4 <adc_enable_clock+0x22>
     28a:	80 91 67 20 	lds	r24, 0x2067	; 0x802067 <adca_enable_count>
     28e:	91 e0       	ldi	r25, 0x01	; 1
     290:	98 0f       	add	r25, r24
     292:	90 93 67 20 	sts	0x2067, r25	; 0x802067 <adca_enable_count>
     296:	81 11       	cpse	r24, r1
     298:	14 c0       	rjmp	.+40     	; 0x2c2 <adc_enable_clock+0x40>
     29a:	62 e0       	ldi	r22, 0x02	; 2
     29c:	81 e0       	ldi	r24, 0x01	; 1
     29e:	0c 94 16 11 	jmp	0x222c	; 0x222c <sysclk_enable_module>
     2a2:	08 95       	ret
     2a4:	80 34       	cpi	r24, 0x40	; 64
     2a6:	92 40       	sbci	r25, 0x02	; 2
     2a8:	61 f4       	brne	.+24     	; 0x2c2 <adc_enable_clock+0x40>
     2aa:	80 91 66 20 	lds	r24, 0x2066	; 0x802066 <__data_end>
     2ae:	91 e0       	ldi	r25, 0x01	; 1
     2b0:	98 0f       	add	r25, r24
     2b2:	90 93 66 20 	sts	0x2066, r25	; 0x802066 <__data_end>
     2b6:	81 11       	cpse	r24, r1
     2b8:	04 c0       	rjmp	.+8      	; 0x2c2 <adc_enable_clock+0x40>
     2ba:	62 e0       	ldi	r22, 0x02	; 2
     2bc:	82 e0       	ldi	r24, 0x02	; 2
     2be:	0c 94 16 11 	jmp	0x222c	; 0x222c <sysclk_enable_module>
     2c2:	08 95       	ret

000002c4 <adc_disable_clock>:
     2c4:	81 15       	cp	r24, r1
     2c6:	22 e0       	ldi	r18, 0x02	; 2
     2c8:	92 07       	cpc	r25, r18
     2ca:	61 f4       	brne	.+24     	; 0x2e4 <adc_disable_clock+0x20>
     2cc:	80 91 67 20 	lds	r24, 0x2067	; 0x802067 <adca_enable_count>
     2d0:	81 50       	subi	r24, 0x01	; 1
     2d2:	80 93 67 20 	sts	0x2067, r24	; 0x802067 <adca_enable_count>
     2d6:	81 11       	cpse	r24, r1
     2d8:	13 c0       	rjmp	.+38     	; 0x300 <adc_disable_clock+0x3c>
     2da:	62 e0       	ldi	r22, 0x02	; 2
     2dc:	81 e0       	ldi	r24, 0x01	; 1
     2de:	0c 94 2c 11 	jmp	0x2258	; 0x2258 <sysclk_disable_module>
     2e2:	08 95       	ret
     2e4:	80 34       	cpi	r24, 0x40	; 64
     2e6:	92 40       	sbci	r25, 0x02	; 2
     2e8:	59 f4       	brne	.+22     	; 0x300 <adc_disable_clock+0x3c>
     2ea:	80 91 66 20 	lds	r24, 0x2066	; 0x802066 <__data_end>
     2ee:	81 50       	subi	r24, 0x01	; 1
     2f0:	80 93 66 20 	sts	0x2066, r24	; 0x802066 <__data_end>
     2f4:	81 11       	cpse	r24, r1
     2f6:	04 c0       	rjmp	.+8      	; 0x300 <adc_disable_clock+0x3c>
     2f8:	62 e0       	ldi	r22, 0x02	; 2
     2fa:	82 e0       	ldi	r24, 0x02	; 2
     2fc:	0c 94 2c 11 	jmp	0x2258	; 0x2258 <sysclk_disable_module>
     300:	08 95       	ret

00000302 <adc_enable>:
     302:	ef 92       	push	r14
     304:	ff 92       	push	r15
     306:	1f 93       	push	r17
     308:	cf 93       	push	r28
     30a:	df 93       	push	r29
     30c:	1f 92       	push	r1
     30e:	1f 92       	push	r1
     310:	cd b7       	in	r28, 0x3d	; 61
     312:	de b7       	in	r29, 0x3e	; 62
     314:	7c 01       	movw	r14, r24
     316:	8f b7       	in	r24, 0x3f	; 63
     318:	89 83       	std	Y+1, r24	; 0x01
     31a:	f8 94       	cli
     31c:	19 81       	ldd	r17, Y+1	; 0x01
     31e:	c7 01       	movw	r24, r14
     320:	b0 df       	rcall	.-160    	; 0x282 <adc_enable_clock>
     322:	f7 01       	movw	r30, r14
     324:	80 81       	ld	r24, Z
     326:	81 60       	ori	r24, 0x01	; 1
     328:	80 83       	st	Z, r24
     32a:	1f bf       	out	0x3f, r17	; 63
     32c:	80 91 c4 20 	lds	r24, 0x20C4	; 0x8020c4 <sleepmgr_locks+0x1>
     330:	8f 3f       	cpi	r24, 0xFF	; 255
     332:	09 f4       	brne	.+2      	; 0x336 <adc_enable+0x34>
     334:	ff cf       	rjmp	.-2      	; 0x334 <adc_enable+0x32>
     336:	8f b7       	in	r24, 0x3f	; 63
     338:	8a 83       	std	Y+2, r24	; 0x02
     33a:	f8 94       	cli
     33c:	9a 81       	ldd	r25, Y+2	; 0x02
     33e:	e3 ec       	ldi	r30, 0xC3	; 195
     340:	f0 e2       	ldi	r31, 0x20	; 32
     342:	81 81       	ldd	r24, Z+1	; 0x01
     344:	8f 5f       	subi	r24, 0xFF	; 255
     346:	81 83       	std	Z+1, r24	; 0x01
     348:	9f bf       	out	0x3f, r25	; 63
     34a:	0f 90       	pop	r0
     34c:	0f 90       	pop	r0
     34e:	df 91       	pop	r29
     350:	cf 91       	pop	r28
     352:	1f 91       	pop	r17
     354:	ff 90       	pop	r15
     356:	ef 90       	pop	r14
     358:	08 95       	ret

0000035a <dac_enable_clock>:
     35a:	81 15       	cp	r24, r1
     35c:	23 e0       	ldi	r18, 0x03	; 3
     35e:	92 07       	cpc	r25, r18
     360:	69 f4       	brne	.+26     	; 0x37c <dac_enable_clock+0x22>
     362:	80 91 69 20 	lds	r24, 0x2069	; 0x802069 <daca_enable_count>
     366:	91 e0       	ldi	r25, 0x01	; 1
     368:	98 0f       	add	r25, r24
     36a:	90 93 69 20 	sts	0x2069, r25	; 0x802069 <daca_enable_count>
     36e:	81 11       	cpse	r24, r1
     370:	14 c0       	rjmp	.+40     	; 0x39a <dac_enable_clock+0x40>
     372:	64 e0       	ldi	r22, 0x04	; 4
     374:	81 e0       	ldi	r24, 0x01	; 1
     376:	0c 94 16 11 	jmp	0x222c	; 0x222c <sysclk_enable_module>
     37a:	08 95       	ret
     37c:	80 32       	cpi	r24, 0x20	; 32
     37e:	93 40       	sbci	r25, 0x03	; 3
     380:	61 f4       	brne	.+24     	; 0x39a <dac_enable_clock+0x40>
     382:	80 91 68 20 	lds	r24, 0x2068	; 0x802068 <dacb_enable_count>
     386:	91 e0       	ldi	r25, 0x01	; 1
     388:	98 0f       	add	r25, r24
     38a:	90 93 68 20 	sts	0x2068, r25	; 0x802068 <dacb_enable_count>
     38e:	81 11       	cpse	r24, r1
     390:	04 c0       	rjmp	.+8      	; 0x39a <dac_enable_clock+0x40>
     392:	64 e0       	ldi	r22, 0x04	; 4
     394:	82 e0       	ldi	r24, 0x02	; 2
     396:	0c 94 16 11 	jmp	0x222c	; 0x222c <sysclk_enable_module>
     39a:	08 95       	ret

0000039c <dac_disable_clock>:
     39c:	81 15       	cp	r24, r1
     39e:	23 e0       	ldi	r18, 0x03	; 3
     3a0:	92 07       	cpc	r25, r18
     3a2:	61 f4       	brne	.+24     	; 0x3bc <dac_disable_clock+0x20>
     3a4:	80 91 69 20 	lds	r24, 0x2069	; 0x802069 <daca_enable_count>
     3a8:	81 50       	subi	r24, 0x01	; 1
     3aa:	80 93 69 20 	sts	0x2069, r24	; 0x802069 <daca_enable_count>
     3ae:	81 11       	cpse	r24, r1
     3b0:	13 c0       	rjmp	.+38     	; 0x3d8 <dac_disable_clock+0x3c>
     3b2:	64 e0       	ldi	r22, 0x04	; 4
     3b4:	81 e0       	ldi	r24, 0x01	; 1
     3b6:	0c 94 2c 11 	jmp	0x2258	; 0x2258 <sysclk_disable_module>
     3ba:	08 95       	ret
     3bc:	80 32       	cpi	r24, 0x20	; 32
     3be:	93 40       	sbci	r25, 0x03	; 3
     3c0:	59 f4       	brne	.+22     	; 0x3d8 <dac_disable_clock+0x3c>
     3c2:	80 91 68 20 	lds	r24, 0x2068	; 0x802068 <dacb_enable_count>
     3c6:	81 50       	subi	r24, 0x01	; 1
     3c8:	80 93 68 20 	sts	0x2068, r24	; 0x802068 <dacb_enable_count>
     3cc:	81 11       	cpse	r24, r1
     3ce:	04 c0       	rjmp	.+8      	; 0x3d8 <dac_disable_clock+0x3c>
     3d0:	64 e0       	ldi	r22, 0x04	; 4
     3d2:	82 e0       	ldi	r24, 0x02	; 2
     3d4:	0c 94 2c 11 	jmp	0x2258	; 0x2258 <sysclk_disable_module>
     3d8:	08 95       	ret

000003da <dac_enable>:
     3da:	ef 92       	push	r14
     3dc:	ff 92       	push	r15
     3de:	1f 93       	push	r17
     3e0:	cf 93       	push	r28
     3e2:	df 93       	push	r29
     3e4:	1f 92       	push	r1
     3e6:	1f 92       	push	r1
     3e8:	cd b7       	in	r28, 0x3d	; 61
     3ea:	de b7       	in	r29, 0x3e	; 62
     3ec:	2f b7       	in	r18, 0x3f	; 63
     3ee:	29 83       	std	Y+1, r18	; 0x01
     3f0:	f8 94       	cli
     3f2:	19 81       	ldd	r17, Y+1	; 0x01
     3f4:	20 91 c4 20 	lds	r18, 0x20C4	; 0x8020c4 <sleepmgr_locks+0x1>
     3f8:	2f 3f       	cpi	r18, 0xFF	; 255
     3fa:	09 f4       	brne	.+2      	; 0x3fe <dac_enable+0x24>
     3fc:	ff cf       	rjmp	.-2      	; 0x3fc <dac_enable+0x22>
     3fe:	7c 01       	movw	r14, r24
     400:	8f b7       	in	r24, 0x3f	; 63
     402:	8a 83       	std	Y+2, r24	; 0x02
     404:	f8 94       	cli
     406:	9a 81       	ldd	r25, Y+2	; 0x02
     408:	e3 ec       	ldi	r30, 0xC3	; 195
     40a:	f0 e2       	ldi	r31, 0x20	; 32
     40c:	81 81       	ldd	r24, Z+1	; 0x01
     40e:	8f 5f       	subi	r24, 0xFF	; 255
     410:	81 83       	std	Z+1, r24	; 0x01
     412:	9f bf       	out	0x3f, r25	; 63
     414:	c7 01       	movw	r24, r14
     416:	a1 df       	rcall	.-190    	; 0x35a <dac_enable_clock>
     418:	f7 01       	movw	r30, r14
     41a:	80 81       	ld	r24, Z
     41c:	81 60       	ori	r24, 0x01	; 1
     41e:	80 83       	st	Z, r24
     420:	1f bf       	out	0x3f, r17	; 63
     422:	0f 90       	pop	r0
     424:	0f 90       	pop	r0
     426:	df 91       	pop	r29
     428:	cf 91       	pop	r28
     42a:	1f 91       	pop	r17
     42c:	ff 90       	pop	r15
     42e:	ef 90       	pop	r14
     430:	08 95       	ret

00000432 <dac_write_configuration>:
     432:	bf 92       	push	r11
     434:	cf 92       	push	r12
     436:	df 92       	push	r13
     438:	ef 92       	push	r14
     43a:	ff 92       	push	r15
     43c:	0f 93       	push	r16
     43e:	1f 93       	push	r17
     440:	cf 93       	push	r28
     442:	df 93       	push	r29
     444:	1f 92       	push	r1
     446:	cd b7       	in	r28, 0x3d	; 61
     448:	de b7       	in	r29, 0x3e	; 62
     44a:	8c 01       	movw	r16, r24
     44c:	7b 01       	movw	r14, r22
     44e:	81 15       	cp	r24, r1
     450:	23 e0       	ldi	r18, 0x03	; 3
     452:	92 07       	cpc	r25, r18
     454:	69 f4       	brne	.+26     	; 0x470 <dac_write_configuration+0x3e>
     456:	61 e3       	ldi	r22, 0x31	; 49
     458:	70 e0       	ldi	r23, 0x00	; 0
     45a:	82 e0       	ldi	r24, 0x02	; 2
     45c:	0e 94 41 11 	call	0x2282	; 0x2282 <nvm_read_byte>
     460:	b8 2e       	mov	r11, r24
     462:	60 e3       	ldi	r22, 0x30	; 48
     464:	70 e0       	ldi	r23, 0x00	; 0
     466:	82 e0       	ldi	r24, 0x02	; 2
     468:	0e 94 41 11 	call	0x2282	; 0x2282 <nvm_read_byte>
     46c:	c8 2e       	mov	r12, r24
     46e:	0f c0       	rjmp	.+30     	; 0x48e <dac_write_configuration+0x5c>
     470:	80 32       	cpi	r24, 0x20	; 32
     472:	93 40       	sbci	r25, 0x03	; 3
     474:	81 f5       	brne	.+96     	; 0x4d6 <dac_write_configuration+0xa4>
     476:	63 e3       	ldi	r22, 0x33	; 51
     478:	70 e0       	ldi	r23, 0x00	; 0
     47a:	82 e0       	ldi	r24, 0x02	; 2
     47c:	0e 94 41 11 	call	0x2282	; 0x2282 <nvm_read_byte>
     480:	b8 2e       	mov	r11, r24
     482:	62 e3       	ldi	r22, 0x32	; 50
     484:	70 e0       	ldi	r23, 0x00	; 0
     486:	82 e0       	ldi	r24, 0x02	; 2
     488:	0e 94 41 11 	call	0x2282	; 0x2282 <nvm_read_byte>
     48c:	c8 2e       	mov	r12, r24
     48e:	8f b7       	in	r24, 0x3f	; 63
     490:	89 83       	std	Y+1, r24	; 0x01
     492:	f8 94       	cli
     494:	d9 80       	ldd	r13, Y+1	; 0x01
     496:	c8 01       	movw	r24, r16
     498:	60 df       	rcall	.-320    	; 0x35a <dac_enable_clock>
     49a:	f8 01       	movw	r30, r16
     49c:	80 81       	ld	r24, Z
     49e:	10 82       	st	Z, r1
     4a0:	f7 01       	movw	r30, r14
     4a2:	91 81       	ldd	r25, Z+1	; 0x01
     4a4:	f8 01       	movw	r30, r16
     4a6:	91 83       	std	Z+1, r25	; 0x01
     4a8:	f7 01       	movw	r30, r14
     4aa:	92 81       	ldd	r25, Z+2	; 0x02
     4ac:	f8 01       	movw	r30, r16
     4ae:	92 83       	std	Z+2, r25	; 0x02
     4b0:	f7 01       	movw	r30, r14
     4b2:	93 81       	ldd	r25, Z+3	; 0x03
     4b4:	f8 01       	movw	r30, r16
     4b6:	93 83       	std	Z+3, r25	; 0x03
     4b8:	f7 01       	movw	r30, r14
     4ba:	94 81       	ldd	r25, Z+4	; 0x04
     4bc:	f8 01       	movw	r30, r16
     4be:	94 83       	std	Z+4, r25	; 0x04
     4c0:	b0 86       	std	Z+8, r11	; 0x08
     4c2:	c1 86       	std	Z+9, r12	; 0x09
     4c4:	81 70       	andi	r24, 0x01	; 1
     4c6:	f7 01       	movw	r30, r14
     4c8:	90 81       	ld	r25, Z
     4ca:	89 2b       	or	r24, r25
     4cc:	f8 01       	movw	r30, r16
     4ce:	80 83       	st	Z, r24
     4d0:	c8 01       	movw	r24, r16
     4d2:	64 df       	rcall	.-312    	; 0x39c <dac_disable_clock>
     4d4:	df be       	out	0x3f, r13	; 63
     4d6:	0f 90       	pop	r0
     4d8:	df 91       	pop	r29
     4da:	cf 91       	pop	r28
     4dc:	1f 91       	pop	r17
     4de:	0f 91       	pop	r16
     4e0:	ff 90       	pop	r15
     4e2:	ef 90       	pop	r14
     4e4:	df 90       	pop	r13
     4e6:	cf 90       	pop	r12
     4e8:	bf 90       	pop	r11
     4ea:	08 95       	ret

000004ec <dac_read_configuration>:
     4ec:	df 92       	push	r13
     4ee:	ef 92       	push	r14
     4f0:	ff 92       	push	r15
     4f2:	0f 93       	push	r16
     4f4:	1f 93       	push	r17
     4f6:	cf 93       	push	r28
     4f8:	df 93       	push	r29
     4fa:	1f 92       	push	r1
     4fc:	cd b7       	in	r28, 0x3d	; 61
     4fe:	de b7       	in	r29, 0x3e	; 62
     500:	8c 01       	movw	r16, r24
     502:	7b 01       	movw	r14, r22
     504:	8f b7       	in	r24, 0x3f	; 63
     506:	89 83       	std	Y+1, r24	; 0x01
     508:	f8 94       	cli
     50a:	d9 80       	ldd	r13, Y+1	; 0x01
     50c:	c8 01       	movw	r24, r16
     50e:	25 df       	rcall	.-438    	; 0x35a <dac_enable_clock>
     510:	f8 01       	movw	r30, r16
     512:	80 81       	ld	r24, Z
     514:	8e 7f       	andi	r24, 0xFE	; 254
     516:	f7 01       	movw	r30, r14
     518:	80 83       	st	Z, r24
     51a:	f8 01       	movw	r30, r16
     51c:	81 81       	ldd	r24, Z+1	; 0x01
     51e:	f7 01       	movw	r30, r14
     520:	81 83       	std	Z+1, r24	; 0x01
     522:	f8 01       	movw	r30, r16
     524:	82 81       	ldd	r24, Z+2	; 0x02
     526:	f7 01       	movw	r30, r14
     528:	82 83       	std	Z+2, r24	; 0x02
     52a:	f8 01       	movw	r30, r16
     52c:	83 81       	ldd	r24, Z+3	; 0x03
     52e:	f7 01       	movw	r30, r14
     530:	83 83       	std	Z+3, r24	; 0x03
     532:	f8 01       	movw	r30, r16
     534:	84 81       	ldd	r24, Z+4	; 0x04
     536:	f7 01       	movw	r30, r14
     538:	84 83       	std	Z+4, r24	; 0x04
     53a:	c8 01       	movw	r24, r16
     53c:	2f df       	rcall	.-418    	; 0x39c <dac_disable_clock>
     53e:	df be       	out	0x3f, r13	; 63
     540:	0f 90       	pop	r0
     542:	df 91       	pop	r29
     544:	cf 91       	pop	r28
     546:	1f 91       	pop	r17
     548:	0f 91       	pop	r16
     54a:	ff 90       	pop	r15
     54c:	ef 90       	pop	r14
     54e:	df 90       	pop	r13
     550:	08 95       	ret

00000552 <__vector_14>:
     552:	1f 92       	push	r1
     554:	0f 92       	push	r0
     556:	0f b6       	in	r0, 0x3f	; 63
     558:	0f 92       	push	r0
     55a:	11 24       	eor	r1, r1
     55c:	08 b6       	in	r0, 0x38	; 56
     55e:	0f 92       	push	r0
     560:	18 be       	out	0x38, r1	; 56
     562:	09 b6       	in	r0, 0x39	; 57
     564:	0f 92       	push	r0
     566:	19 be       	out	0x39, r1	; 57
     568:	0b b6       	in	r0, 0x3b	; 59
     56a:	0f 92       	push	r0
     56c:	1b be       	out	0x3b, r1	; 59
     56e:	2f 93       	push	r18
     570:	3f 93       	push	r19
     572:	4f 93       	push	r20
     574:	5f 93       	push	r21
     576:	6f 93       	push	r22
     578:	7f 93       	push	r23
     57a:	8f 93       	push	r24
     57c:	9f 93       	push	r25
     57e:	af 93       	push	r26
     580:	bf 93       	push	r27
     582:	ef 93       	push	r30
     584:	ff 93       	push	r31
     586:	e0 91 b8 20 	lds	r30, 0x20B8	; 0x8020b8 <tc_tcc0_ovf_callback>
     58a:	f0 91 b9 20 	lds	r31, 0x20B9	; 0x8020b9 <tc_tcc0_ovf_callback+0x1>
     58e:	30 97       	sbiw	r30, 0x00	; 0
     590:	09 f0       	breq	.+2      	; 0x594 <__vector_14+0x42>
     592:	19 95       	eicall
     594:	ff 91       	pop	r31
     596:	ef 91       	pop	r30
     598:	bf 91       	pop	r27
     59a:	af 91       	pop	r26
     59c:	9f 91       	pop	r25
     59e:	8f 91       	pop	r24
     5a0:	7f 91       	pop	r23
     5a2:	6f 91       	pop	r22
     5a4:	5f 91       	pop	r21
     5a6:	4f 91       	pop	r20
     5a8:	3f 91       	pop	r19
     5aa:	2f 91       	pop	r18
     5ac:	0f 90       	pop	r0
     5ae:	0b be       	out	0x3b, r0	; 59
     5b0:	0f 90       	pop	r0
     5b2:	09 be       	out	0x39, r0	; 57
     5b4:	0f 90       	pop	r0
     5b6:	08 be       	out	0x38, r0	; 56
     5b8:	0f 90       	pop	r0
     5ba:	0f be       	out	0x3f, r0	; 63
     5bc:	0f 90       	pop	r0
     5be:	1f 90       	pop	r1
     5c0:	18 95       	reti

000005c2 <__vector_15>:
     5c2:	1f 92       	push	r1
     5c4:	0f 92       	push	r0
     5c6:	0f b6       	in	r0, 0x3f	; 63
     5c8:	0f 92       	push	r0
     5ca:	11 24       	eor	r1, r1
     5cc:	08 b6       	in	r0, 0x38	; 56
     5ce:	0f 92       	push	r0
     5d0:	18 be       	out	0x38, r1	; 56
     5d2:	09 b6       	in	r0, 0x39	; 57
     5d4:	0f 92       	push	r0
     5d6:	19 be       	out	0x39, r1	; 57
     5d8:	0b b6       	in	r0, 0x3b	; 59
     5da:	0f 92       	push	r0
     5dc:	1b be       	out	0x3b, r1	; 59
     5de:	2f 93       	push	r18
     5e0:	3f 93       	push	r19
     5e2:	4f 93       	push	r20
     5e4:	5f 93       	push	r21
     5e6:	6f 93       	push	r22
     5e8:	7f 93       	push	r23
     5ea:	8f 93       	push	r24
     5ec:	9f 93       	push	r25
     5ee:	af 93       	push	r26
     5f0:	bf 93       	push	r27
     5f2:	ef 93       	push	r30
     5f4:	ff 93       	push	r31
     5f6:	e0 91 b6 20 	lds	r30, 0x20B6	; 0x8020b6 <tc_tcc0_err_callback>
     5fa:	f0 91 b7 20 	lds	r31, 0x20B7	; 0x8020b7 <tc_tcc0_err_callback+0x1>
     5fe:	30 97       	sbiw	r30, 0x00	; 0
     600:	09 f0       	breq	.+2      	; 0x604 <__vector_15+0x42>
     602:	19 95       	eicall
     604:	ff 91       	pop	r31
     606:	ef 91       	pop	r30
     608:	bf 91       	pop	r27
     60a:	af 91       	pop	r26
     60c:	9f 91       	pop	r25
     60e:	8f 91       	pop	r24
     610:	7f 91       	pop	r23
     612:	6f 91       	pop	r22
     614:	5f 91       	pop	r21
     616:	4f 91       	pop	r20
     618:	3f 91       	pop	r19
     61a:	2f 91       	pop	r18
     61c:	0f 90       	pop	r0
     61e:	0b be       	out	0x3b, r0	; 59
     620:	0f 90       	pop	r0
     622:	09 be       	out	0x39, r0	; 57
     624:	0f 90       	pop	r0
     626:	08 be       	out	0x38, r0	; 56
     628:	0f 90       	pop	r0
     62a:	0f be       	out	0x3f, r0	; 63
     62c:	0f 90       	pop	r0
     62e:	1f 90       	pop	r1
     630:	18 95       	reti

00000632 <__vector_16>:
     632:	1f 92       	push	r1
     634:	0f 92       	push	r0
     636:	0f b6       	in	r0, 0x3f	; 63
     638:	0f 92       	push	r0
     63a:	11 24       	eor	r1, r1
     63c:	08 b6       	in	r0, 0x38	; 56
     63e:	0f 92       	push	r0
     640:	18 be       	out	0x38, r1	; 56
     642:	09 b6       	in	r0, 0x39	; 57
     644:	0f 92       	push	r0
     646:	19 be       	out	0x39, r1	; 57
     648:	0b b6       	in	r0, 0x3b	; 59
     64a:	0f 92       	push	r0
     64c:	1b be       	out	0x3b, r1	; 59
     64e:	2f 93       	push	r18
     650:	3f 93       	push	r19
     652:	4f 93       	push	r20
     654:	5f 93       	push	r21
     656:	6f 93       	push	r22
     658:	7f 93       	push	r23
     65a:	8f 93       	push	r24
     65c:	9f 93       	push	r25
     65e:	af 93       	push	r26
     660:	bf 93       	push	r27
     662:	ef 93       	push	r30
     664:	ff 93       	push	r31
     666:	e0 91 b4 20 	lds	r30, 0x20B4	; 0x8020b4 <tc_tcc0_cca_callback>
     66a:	f0 91 b5 20 	lds	r31, 0x20B5	; 0x8020b5 <tc_tcc0_cca_callback+0x1>
     66e:	30 97       	sbiw	r30, 0x00	; 0
     670:	09 f0       	breq	.+2      	; 0x674 <__vector_16+0x42>
     672:	19 95       	eicall
     674:	ff 91       	pop	r31
     676:	ef 91       	pop	r30
     678:	bf 91       	pop	r27
     67a:	af 91       	pop	r26
     67c:	9f 91       	pop	r25
     67e:	8f 91       	pop	r24
     680:	7f 91       	pop	r23
     682:	6f 91       	pop	r22
     684:	5f 91       	pop	r21
     686:	4f 91       	pop	r20
     688:	3f 91       	pop	r19
     68a:	2f 91       	pop	r18
     68c:	0f 90       	pop	r0
     68e:	0b be       	out	0x3b, r0	; 59
     690:	0f 90       	pop	r0
     692:	09 be       	out	0x39, r0	; 57
     694:	0f 90       	pop	r0
     696:	08 be       	out	0x38, r0	; 56
     698:	0f 90       	pop	r0
     69a:	0f be       	out	0x3f, r0	; 63
     69c:	0f 90       	pop	r0
     69e:	1f 90       	pop	r1
     6a0:	18 95       	reti

000006a2 <__vector_17>:
     6a2:	1f 92       	push	r1
     6a4:	0f 92       	push	r0
     6a6:	0f b6       	in	r0, 0x3f	; 63
     6a8:	0f 92       	push	r0
     6aa:	11 24       	eor	r1, r1
     6ac:	08 b6       	in	r0, 0x38	; 56
     6ae:	0f 92       	push	r0
     6b0:	18 be       	out	0x38, r1	; 56
     6b2:	09 b6       	in	r0, 0x39	; 57
     6b4:	0f 92       	push	r0
     6b6:	19 be       	out	0x39, r1	; 57
     6b8:	0b b6       	in	r0, 0x3b	; 59
     6ba:	0f 92       	push	r0
     6bc:	1b be       	out	0x3b, r1	; 59
     6be:	2f 93       	push	r18
     6c0:	3f 93       	push	r19
     6c2:	4f 93       	push	r20
     6c4:	5f 93       	push	r21
     6c6:	6f 93       	push	r22
     6c8:	7f 93       	push	r23
     6ca:	8f 93       	push	r24
     6cc:	9f 93       	push	r25
     6ce:	af 93       	push	r26
     6d0:	bf 93       	push	r27
     6d2:	ef 93       	push	r30
     6d4:	ff 93       	push	r31
     6d6:	e0 91 b2 20 	lds	r30, 0x20B2	; 0x8020b2 <tc_tcc0_ccb_callback>
     6da:	f0 91 b3 20 	lds	r31, 0x20B3	; 0x8020b3 <tc_tcc0_ccb_callback+0x1>
     6de:	30 97       	sbiw	r30, 0x00	; 0
     6e0:	09 f0       	breq	.+2      	; 0x6e4 <__vector_17+0x42>
     6e2:	19 95       	eicall
     6e4:	ff 91       	pop	r31
     6e6:	ef 91       	pop	r30
     6e8:	bf 91       	pop	r27
     6ea:	af 91       	pop	r26
     6ec:	9f 91       	pop	r25
     6ee:	8f 91       	pop	r24
     6f0:	7f 91       	pop	r23
     6f2:	6f 91       	pop	r22
     6f4:	5f 91       	pop	r21
     6f6:	4f 91       	pop	r20
     6f8:	3f 91       	pop	r19
     6fa:	2f 91       	pop	r18
     6fc:	0f 90       	pop	r0
     6fe:	0b be       	out	0x3b, r0	; 59
     700:	0f 90       	pop	r0
     702:	09 be       	out	0x39, r0	; 57
     704:	0f 90       	pop	r0
     706:	08 be       	out	0x38, r0	; 56
     708:	0f 90       	pop	r0
     70a:	0f be       	out	0x3f, r0	; 63
     70c:	0f 90       	pop	r0
     70e:	1f 90       	pop	r1
     710:	18 95       	reti

00000712 <__vector_18>:
     712:	1f 92       	push	r1
     714:	0f 92       	push	r0
     716:	0f b6       	in	r0, 0x3f	; 63
     718:	0f 92       	push	r0
     71a:	11 24       	eor	r1, r1
     71c:	08 b6       	in	r0, 0x38	; 56
     71e:	0f 92       	push	r0
     720:	18 be       	out	0x38, r1	; 56
     722:	09 b6       	in	r0, 0x39	; 57
     724:	0f 92       	push	r0
     726:	19 be       	out	0x39, r1	; 57
     728:	0b b6       	in	r0, 0x3b	; 59
     72a:	0f 92       	push	r0
     72c:	1b be       	out	0x3b, r1	; 59
     72e:	2f 93       	push	r18
     730:	3f 93       	push	r19
     732:	4f 93       	push	r20
     734:	5f 93       	push	r21
     736:	6f 93       	push	r22
     738:	7f 93       	push	r23
     73a:	8f 93       	push	r24
     73c:	9f 93       	push	r25
     73e:	af 93       	push	r26
     740:	bf 93       	push	r27
     742:	ef 93       	push	r30
     744:	ff 93       	push	r31
     746:	e0 91 b0 20 	lds	r30, 0x20B0	; 0x8020b0 <tc_tcc0_ccc_callback>
     74a:	f0 91 b1 20 	lds	r31, 0x20B1	; 0x8020b1 <tc_tcc0_ccc_callback+0x1>
     74e:	30 97       	sbiw	r30, 0x00	; 0
     750:	09 f0       	breq	.+2      	; 0x754 <__vector_18+0x42>
     752:	19 95       	eicall
     754:	ff 91       	pop	r31
     756:	ef 91       	pop	r30
     758:	bf 91       	pop	r27
     75a:	af 91       	pop	r26
     75c:	9f 91       	pop	r25
     75e:	8f 91       	pop	r24
     760:	7f 91       	pop	r23
     762:	6f 91       	pop	r22
     764:	5f 91       	pop	r21
     766:	4f 91       	pop	r20
     768:	3f 91       	pop	r19
     76a:	2f 91       	pop	r18
     76c:	0f 90       	pop	r0
     76e:	0b be       	out	0x3b, r0	; 59
     770:	0f 90       	pop	r0
     772:	09 be       	out	0x39, r0	; 57
     774:	0f 90       	pop	r0
     776:	08 be       	out	0x38, r0	; 56
     778:	0f 90       	pop	r0
     77a:	0f be       	out	0x3f, r0	; 63
     77c:	0f 90       	pop	r0
     77e:	1f 90       	pop	r1
     780:	18 95       	reti

00000782 <__vector_19>:
     782:	1f 92       	push	r1
     784:	0f 92       	push	r0
     786:	0f b6       	in	r0, 0x3f	; 63
     788:	0f 92       	push	r0
     78a:	11 24       	eor	r1, r1
     78c:	08 b6       	in	r0, 0x38	; 56
     78e:	0f 92       	push	r0
     790:	18 be       	out	0x38, r1	; 56
     792:	09 b6       	in	r0, 0x39	; 57
     794:	0f 92       	push	r0
     796:	19 be       	out	0x39, r1	; 57
     798:	0b b6       	in	r0, 0x3b	; 59
     79a:	0f 92       	push	r0
     79c:	1b be       	out	0x3b, r1	; 59
     79e:	2f 93       	push	r18
     7a0:	3f 93       	push	r19
     7a2:	4f 93       	push	r20
     7a4:	5f 93       	push	r21
     7a6:	6f 93       	push	r22
     7a8:	7f 93       	push	r23
     7aa:	8f 93       	push	r24
     7ac:	9f 93       	push	r25
     7ae:	af 93       	push	r26
     7b0:	bf 93       	push	r27
     7b2:	ef 93       	push	r30
     7b4:	ff 93       	push	r31
     7b6:	e0 91 ae 20 	lds	r30, 0x20AE	; 0x8020ae <tc_tcc0_ccd_callback>
     7ba:	f0 91 af 20 	lds	r31, 0x20AF	; 0x8020af <tc_tcc0_ccd_callback+0x1>
     7be:	30 97       	sbiw	r30, 0x00	; 0
     7c0:	09 f0       	breq	.+2      	; 0x7c4 <__vector_19+0x42>
     7c2:	19 95       	eicall
     7c4:	ff 91       	pop	r31
     7c6:	ef 91       	pop	r30
     7c8:	bf 91       	pop	r27
     7ca:	af 91       	pop	r26
     7cc:	9f 91       	pop	r25
     7ce:	8f 91       	pop	r24
     7d0:	7f 91       	pop	r23
     7d2:	6f 91       	pop	r22
     7d4:	5f 91       	pop	r21
     7d6:	4f 91       	pop	r20
     7d8:	3f 91       	pop	r19
     7da:	2f 91       	pop	r18
     7dc:	0f 90       	pop	r0
     7de:	0b be       	out	0x3b, r0	; 59
     7e0:	0f 90       	pop	r0
     7e2:	09 be       	out	0x39, r0	; 57
     7e4:	0f 90       	pop	r0
     7e6:	08 be       	out	0x38, r0	; 56
     7e8:	0f 90       	pop	r0
     7ea:	0f be       	out	0x3f, r0	; 63
     7ec:	0f 90       	pop	r0
     7ee:	1f 90       	pop	r1
     7f0:	18 95       	reti

000007f2 <__vector_20>:
     7f2:	1f 92       	push	r1
     7f4:	0f 92       	push	r0
     7f6:	0f b6       	in	r0, 0x3f	; 63
     7f8:	0f 92       	push	r0
     7fa:	11 24       	eor	r1, r1
     7fc:	08 b6       	in	r0, 0x38	; 56
     7fe:	0f 92       	push	r0
     800:	18 be       	out	0x38, r1	; 56
     802:	09 b6       	in	r0, 0x39	; 57
     804:	0f 92       	push	r0
     806:	19 be       	out	0x39, r1	; 57
     808:	0b b6       	in	r0, 0x3b	; 59
     80a:	0f 92       	push	r0
     80c:	1b be       	out	0x3b, r1	; 59
     80e:	2f 93       	push	r18
     810:	3f 93       	push	r19
     812:	4f 93       	push	r20
     814:	5f 93       	push	r21
     816:	6f 93       	push	r22
     818:	7f 93       	push	r23
     81a:	8f 93       	push	r24
     81c:	9f 93       	push	r25
     81e:	af 93       	push	r26
     820:	bf 93       	push	r27
     822:	ef 93       	push	r30
     824:	ff 93       	push	r31
     826:	e0 91 ac 20 	lds	r30, 0x20AC	; 0x8020ac <tc_tcc1_ovf_callback>
     82a:	f0 91 ad 20 	lds	r31, 0x20AD	; 0x8020ad <tc_tcc1_ovf_callback+0x1>
     82e:	30 97       	sbiw	r30, 0x00	; 0
     830:	09 f0       	breq	.+2      	; 0x834 <__vector_20+0x42>
     832:	19 95       	eicall
     834:	ff 91       	pop	r31
     836:	ef 91       	pop	r30
     838:	bf 91       	pop	r27
     83a:	af 91       	pop	r26
     83c:	9f 91       	pop	r25
     83e:	8f 91       	pop	r24
     840:	7f 91       	pop	r23
     842:	6f 91       	pop	r22
     844:	5f 91       	pop	r21
     846:	4f 91       	pop	r20
     848:	3f 91       	pop	r19
     84a:	2f 91       	pop	r18
     84c:	0f 90       	pop	r0
     84e:	0b be       	out	0x3b, r0	; 59
     850:	0f 90       	pop	r0
     852:	09 be       	out	0x39, r0	; 57
     854:	0f 90       	pop	r0
     856:	08 be       	out	0x38, r0	; 56
     858:	0f 90       	pop	r0
     85a:	0f be       	out	0x3f, r0	; 63
     85c:	0f 90       	pop	r0
     85e:	1f 90       	pop	r1
     860:	18 95       	reti

00000862 <__vector_21>:
     862:	1f 92       	push	r1
     864:	0f 92       	push	r0
     866:	0f b6       	in	r0, 0x3f	; 63
     868:	0f 92       	push	r0
     86a:	11 24       	eor	r1, r1
     86c:	08 b6       	in	r0, 0x38	; 56
     86e:	0f 92       	push	r0
     870:	18 be       	out	0x38, r1	; 56
     872:	09 b6       	in	r0, 0x39	; 57
     874:	0f 92       	push	r0
     876:	19 be       	out	0x39, r1	; 57
     878:	0b b6       	in	r0, 0x3b	; 59
     87a:	0f 92       	push	r0
     87c:	1b be       	out	0x3b, r1	; 59
     87e:	2f 93       	push	r18
     880:	3f 93       	push	r19
     882:	4f 93       	push	r20
     884:	5f 93       	push	r21
     886:	6f 93       	push	r22
     888:	7f 93       	push	r23
     88a:	8f 93       	push	r24
     88c:	9f 93       	push	r25
     88e:	af 93       	push	r26
     890:	bf 93       	push	r27
     892:	ef 93       	push	r30
     894:	ff 93       	push	r31
     896:	e0 91 aa 20 	lds	r30, 0x20AA	; 0x8020aa <tc_tcc1_err_callback>
     89a:	f0 91 ab 20 	lds	r31, 0x20AB	; 0x8020ab <tc_tcc1_err_callback+0x1>
     89e:	30 97       	sbiw	r30, 0x00	; 0
     8a0:	09 f0       	breq	.+2      	; 0x8a4 <__vector_21+0x42>
     8a2:	19 95       	eicall
     8a4:	ff 91       	pop	r31
     8a6:	ef 91       	pop	r30
     8a8:	bf 91       	pop	r27
     8aa:	af 91       	pop	r26
     8ac:	9f 91       	pop	r25
     8ae:	8f 91       	pop	r24
     8b0:	7f 91       	pop	r23
     8b2:	6f 91       	pop	r22
     8b4:	5f 91       	pop	r21
     8b6:	4f 91       	pop	r20
     8b8:	3f 91       	pop	r19
     8ba:	2f 91       	pop	r18
     8bc:	0f 90       	pop	r0
     8be:	0b be       	out	0x3b, r0	; 59
     8c0:	0f 90       	pop	r0
     8c2:	09 be       	out	0x39, r0	; 57
     8c4:	0f 90       	pop	r0
     8c6:	08 be       	out	0x38, r0	; 56
     8c8:	0f 90       	pop	r0
     8ca:	0f be       	out	0x3f, r0	; 63
     8cc:	0f 90       	pop	r0
     8ce:	1f 90       	pop	r1
     8d0:	18 95       	reti

000008d2 <__vector_22>:
     8d2:	1f 92       	push	r1
     8d4:	0f 92       	push	r0
     8d6:	0f b6       	in	r0, 0x3f	; 63
     8d8:	0f 92       	push	r0
     8da:	11 24       	eor	r1, r1
     8dc:	08 b6       	in	r0, 0x38	; 56
     8de:	0f 92       	push	r0
     8e0:	18 be       	out	0x38, r1	; 56
     8e2:	09 b6       	in	r0, 0x39	; 57
     8e4:	0f 92       	push	r0
     8e6:	19 be       	out	0x39, r1	; 57
     8e8:	0b b6       	in	r0, 0x3b	; 59
     8ea:	0f 92       	push	r0
     8ec:	1b be       	out	0x3b, r1	; 59
     8ee:	2f 93       	push	r18
     8f0:	3f 93       	push	r19
     8f2:	4f 93       	push	r20
     8f4:	5f 93       	push	r21
     8f6:	6f 93       	push	r22
     8f8:	7f 93       	push	r23
     8fa:	8f 93       	push	r24
     8fc:	9f 93       	push	r25
     8fe:	af 93       	push	r26
     900:	bf 93       	push	r27
     902:	ef 93       	push	r30
     904:	ff 93       	push	r31
     906:	e0 91 a8 20 	lds	r30, 0x20A8	; 0x8020a8 <tc_tcc1_cca_callback>
     90a:	f0 91 a9 20 	lds	r31, 0x20A9	; 0x8020a9 <tc_tcc1_cca_callback+0x1>
     90e:	30 97       	sbiw	r30, 0x00	; 0
     910:	09 f0       	breq	.+2      	; 0x914 <__vector_22+0x42>
     912:	19 95       	eicall
     914:	ff 91       	pop	r31
     916:	ef 91       	pop	r30
     918:	bf 91       	pop	r27
     91a:	af 91       	pop	r26
     91c:	9f 91       	pop	r25
     91e:	8f 91       	pop	r24
     920:	7f 91       	pop	r23
     922:	6f 91       	pop	r22
     924:	5f 91       	pop	r21
     926:	4f 91       	pop	r20
     928:	3f 91       	pop	r19
     92a:	2f 91       	pop	r18
     92c:	0f 90       	pop	r0
     92e:	0b be       	out	0x3b, r0	; 59
     930:	0f 90       	pop	r0
     932:	09 be       	out	0x39, r0	; 57
     934:	0f 90       	pop	r0
     936:	08 be       	out	0x38, r0	; 56
     938:	0f 90       	pop	r0
     93a:	0f be       	out	0x3f, r0	; 63
     93c:	0f 90       	pop	r0
     93e:	1f 90       	pop	r1
     940:	18 95       	reti

00000942 <__vector_23>:
     942:	1f 92       	push	r1
     944:	0f 92       	push	r0
     946:	0f b6       	in	r0, 0x3f	; 63
     948:	0f 92       	push	r0
     94a:	11 24       	eor	r1, r1
     94c:	08 b6       	in	r0, 0x38	; 56
     94e:	0f 92       	push	r0
     950:	18 be       	out	0x38, r1	; 56
     952:	09 b6       	in	r0, 0x39	; 57
     954:	0f 92       	push	r0
     956:	19 be       	out	0x39, r1	; 57
     958:	0b b6       	in	r0, 0x3b	; 59
     95a:	0f 92       	push	r0
     95c:	1b be       	out	0x3b, r1	; 59
     95e:	2f 93       	push	r18
     960:	3f 93       	push	r19
     962:	4f 93       	push	r20
     964:	5f 93       	push	r21
     966:	6f 93       	push	r22
     968:	7f 93       	push	r23
     96a:	8f 93       	push	r24
     96c:	9f 93       	push	r25
     96e:	af 93       	push	r26
     970:	bf 93       	push	r27
     972:	ef 93       	push	r30
     974:	ff 93       	push	r31
     976:	e0 91 a6 20 	lds	r30, 0x20A6	; 0x8020a6 <tc_tcc1_ccb_callback>
     97a:	f0 91 a7 20 	lds	r31, 0x20A7	; 0x8020a7 <tc_tcc1_ccb_callback+0x1>
     97e:	30 97       	sbiw	r30, 0x00	; 0
     980:	09 f0       	breq	.+2      	; 0x984 <__vector_23+0x42>
     982:	19 95       	eicall
     984:	ff 91       	pop	r31
     986:	ef 91       	pop	r30
     988:	bf 91       	pop	r27
     98a:	af 91       	pop	r26
     98c:	9f 91       	pop	r25
     98e:	8f 91       	pop	r24
     990:	7f 91       	pop	r23
     992:	6f 91       	pop	r22
     994:	5f 91       	pop	r21
     996:	4f 91       	pop	r20
     998:	3f 91       	pop	r19
     99a:	2f 91       	pop	r18
     99c:	0f 90       	pop	r0
     99e:	0b be       	out	0x3b, r0	; 59
     9a0:	0f 90       	pop	r0
     9a2:	09 be       	out	0x39, r0	; 57
     9a4:	0f 90       	pop	r0
     9a6:	08 be       	out	0x38, r0	; 56
     9a8:	0f 90       	pop	r0
     9aa:	0f be       	out	0x3f, r0	; 63
     9ac:	0f 90       	pop	r0
     9ae:	1f 90       	pop	r1
     9b0:	18 95       	reti

000009b2 <__vector_77>:
     9b2:	1f 92       	push	r1
     9b4:	0f 92       	push	r0
     9b6:	0f b6       	in	r0, 0x3f	; 63
     9b8:	0f 92       	push	r0
     9ba:	11 24       	eor	r1, r1
     9bc:	08 b6       	in	r0, 0x38	; 56
     9be:	0f 92       	push	r0
     9c0:	18 be       	out	0x38, r1	; 56
     9c2:	09 b6       	in	r0, 0x39	; 57
     9c4:	0f 92       	push	r0
     9c6:	19 be       	out	0x39, r1	; 57
     9c8:	0b b6       	in	r0, 0x3b	; 59
     9ca:	0f 92       	push	r0
     9cc:	1b be       	out	0x3b, r1	; 59
     9ce:	2f 93       	push	r18
     9d0:	3f 93       	push	r19
     9d2:	4f 93       	push	r20
     9d4:	5f 93       	push	r21
     9d6:	6f 93       	push	r22
     9d8:	7f 93       	push	r23
     9da:	8f 93       	push	r24
     9dc:	9f 93       	push	r25
     9de:	af 93       	push	r26
     9e0:	bf 93       	push	r27
     9e2:	ef 93       	push	r30
     9e4:	ff 93       	push	r31
     9e6:	e0 91 a4 20 	lds	r30, 0x20A4	; 0x8020a4 <tc_tcd0_ovf_callback>
     9ea:	f0 91 a5 20 	lds	r31, 0x20A5	; 0x8020a5 <tc_tcd0_ovf_callback+0x1>
     9ee:	30 97       	sbiw	r30, 0x00	; 0
     9f0:	09 f0       	breq	.+2      	; 0x9f4 <__vector_77+0x42>
     9f2:	19 95       	eicall
     9f4:	ff 91       	pop	r31
     9f6:	ef 91       	pop	r30
     9f8:	bf 91       	pop	r27
     9fa:	af 91       	pop	r26
     9fc:	9f 91       	pop	r25
     9fe:	8f 91       	pop	r24
     a00:	7f 91       	pop	r23
     a02:	6f 91       	pop	r22
     a04:	5f 91       	pop	r21
     a06:	4f 91       	pop	r20
     a08:	3f 91       	pop	r19
     a0a:	2f 91       	pop	r18
     a0c:	0f 90       	pop	r0
     a0e:	0b be       	out	0x3b, r0	; 59
     a10:	0f 90       	pop	r0
     a12:	09 be       	out	0x39, r0	; 57
     a14:	0f 90       	pop	r0
     a16:	08 be       	out	0x38, r0	; 56
     a18:	0f 90       	pop	r0
     a1a:	0f be       	out	0x3f, r0	; 63
     a1c:	0f 90       	pop	r0
     a1e:	1f 90       	pop	r1
     a20:	18 95       	reti

00000a22 <__vector_78>:
     a22:	1f 92       	push	r1
     a24:	0f 92       	push	r0
     a26:	0f b6       	in	r0, 0x3f	; 63
     a28:	0f 92       	push	r0
     a2a:	11 24       	eor	r1, r1
     a2c:	08 b6       	in	r0, 0x38	; 56
     a2e:	0f 92       	push	r0
     a30:	18 be       	out	0x38, r1	; 56
     a32:	09 b6       	in	r0, 0x39	; 57
     a34:	0f 92       	push	r0
     a36:	19 be       	out	0x39, r1	; 57
     a38:	0b b6       	in	r0, 0x3b	; 59
     a3a:	0f 92       	push	r0
     a3c:	1b be       	out	0x3b, r1	; 59
     a3e:	2f 93       	push	r18
     a40:	3f 93       	push	r19
     a42:	4f 93       	push	r20
     a44:	5f 93       	push	r21
     a46:	6f 93       	push	r22
     a48:	7f 93       	push	r23
     a4a:	8f 93       	push	r24
     a4c:	9f 93       	push	r25
     a4e:	af 93       	push	r26
     a50:	bf 93       	push	r27
     a52:	ef 93       	push	r30
     a54:	ff 93       	push	r31
     a56:	e0 91 a2 20 	lds	r30, 0x20A2	; 0x8020a2 <tc_tcd0_err_callback>
     a5a:	f0 91 a3 20 	lds	r31, 0x20A3	; 0x8020a3 <tc_tcd0_err_callback+0x1>
     a5e:	30 97       	sbiw	r30, 0x00	; 0
     a60:	09 f0       	breq	.+2      	; 0xa64 <__vector_78+0x42>
     a62:	19 95       	eicall
     a64:	ff 91       	pop	r31
     a66:	ef 91       	pop	r30
     a68:	bf 91       	pop	r27
     a6a:	af 91       	pop	r26
     a6c:	9f 91       	pop	r25
     a6e:	8f 91       	pop	r24
     a70:	7f 91       	pop	r23
     a72:	6f 91       	pop	r22
     a74:	5f 91       	pop	r21
     a76:	4f 91       	pop	r20
     a78:	3f 91       	pop	r19
     a7a:	2f 91       	pop	r18
     a7c:	0f 90       	pop	r0
     a7e:	0b be       	out	0x3b, r0	; 59
     a80:	0f 90       	pop	r0
     a82:	09 be       	out	0x39, r0	; 57
     a84:	0f 90       	pop	r0
     a86:	08 be       	out	0x38, r0	; 56
     a88:	0f 90       	pop	r0
     a8a:	0f be       	out	0x3f, r0	; 63
     a8c:	0f 90       	pop	r0
     a8e:	1f 90       	pop	r1
     a90:	18 95       	reti

00000a92 <__vector_79>:
     a92:	1f 92       	push	r1
     a94:	0f 92       	push	r0
     a96:	0f b6       	in	r0, 0x3f	; 63
     a98:	0f 92       	push	r0
     a9a:	11 24       	eor	r1, r1
     a9c:	08 b6       	in	r0, 0x38	; 56
     a9e:	0f 92       	push	r0
     aa0:	18 be       	out	0x38, r1	; 56
     aa2:	09 b6       	in	r0, 0x39	; 57
     aa4:	0f 92       	push	r0
     aa6:	19 be       	out	0x39, r1	; 57
     aa8:	0b b6       	in	r0, 0x3b	; 59
     aaa:	0f 92       	push	r0
     aac:	1b be       	out	0x3b, r1	; 59
     aae:	2f 93       	push	r18
     ab0:	3f 93       	push	r19
     ab2:	4f 93       	push	r20
     ab4:	5f 93       	push	r21
     ab6:	6f 93       	push	r22
     ab8:	7f 93       	push	r23
     aba:	8f 93       	push	r24
     abc:	9f 93       	push	r25
     abe:	af 93       	push	r26
     ac0:	bf 93       	push	r27
     ac2:	ef 93       	push	r30
     ac4:	ff 93       	push	r31
     ac6:	e0 91 a0 20 	lds	r30, 0x20A0	; 0x8020a0 <tc_tcd0_cca_callback>
     aca:	f0 91 a1 20 	lds	r31, 0x20A1	; 0x8020a1 <tc_tcd0_cca_callback+0x1>
     ace:	30 97       	sbiw	r30, 0x00	; 0
     ad0:	09 f0       	breq	.+2      	; 0xad4 <__vector_79+0x42>
     ad2:	19 95       	eicall
     ad4:	ff 91       	pop	r31
     ad6:	ef 91       	pop	r30
     ad8:	bf 91       	pop	r27
     ada:	af 91       	pop	r26
     adc:	9f 91       	pop	r25
     ade:	8f 91       	pop	r24
     ae0:	7f 91       	pop	r23
     ae2:	6f 91       	pop	r22
     ae4:	5f 91       	pop	r21
     ae6:	4f 91       	pop	r20
     ae8:	3f 91       	pop	r19
     aea:	2f 91       	pop	r18
     aec:	0f 90       	pop	r0
     aee:	0b be       	out	0x3b, r0	; 59
     af0:	0f 90       	pop	r0
     af2:	09 be       	out	0x39, r0	; 57
     af4:	0f 90       	pop	r0
     af6:	08 be       	out	0x38, r0	; 56
     af8:	0f 90       	pop	r0
     afa:	0f be       	out	0x3f, r0	; 63
     afc:	0f 90       	pop	r0
     afe:	1f 90       	pop	r1
     b00:	18 95       	reti

00000b02 <__vector_80>:
     b02:	1f 92       	push	r1
     b04:	0f 92       	push	r0
     b06:	0f b6       	in	r0, 0x3f	; 63
     b08:	0f 92       	push	r0
     b0a:	11 24       	eor	r1, r1
     b0c:	08 b6       	in	r0, 0x38	; 56
     b0e:	0f 92       	push	r0
     b10:	18 be       	out	0x38, r1	; 56
     b12:	09 b6       	in	r0, 0x39	; 57
     b14:	0f 92       	push	r0
     b16:	19 be       	out	0x39, r1	; 57
     b18:	0b b6       	in	r0, 0x3b	; 59
     b1a:	0f 92       	push	r0
     b1c:	1b be       	out	0x3b, r1	; 59
     b1e:	2f 93       	push	r18
     b20:	3f 93       	push	r19
     b22:	4f 93       	push	r20
     b24:	5f 93       	push	r21
     b26:	6f 93       	push	r22
     b28:	7f 93       	push	r23
     b2a:	8f 93       	push	r24
     b2c:	9f 93       	push	r25
     b2e:	af 93       	push	r26
     b30:	bf 93       	push	r27
     b32:	ef 93       	push	r30
     b34:	ff 93       	push	r31
     b36:	e0 91 9e 20 	lds	r30, 0x209E	; 0x80209e <tc_tcd0_ccb_callback>
     b3a:	f0 91 9f 20 	lds	r31, 0x209F	; 0x80209f <tc_tcd0_ccb_callback+0x1>
     b3e:	30 97       	sbiw	r30, 0x00	; 0
     b40:	09 f0       	breq	.+2      	; 0xb44 <__vector_80+0x42>
     b42:	19 95       	eicall
     b44:	ff 91       	pop	r31
     b46:	ef 91       	pop	r30
     b48:	bf 91       	pop	r27
     b4a:	af 91       	pop	r26
     b4c:	9f 91       	pop	r25
     b4e:	8f 91       	pop	r24
     b50:	7f 91       	pop	r23
     b52:	6f 91       	pop	r22
     b54:	5f 91       	pop	r21
     b56:	4f 91       	pop	r20
     b58:	3f 91       	pop	r19
     b5a:	2f 91       	pop	r18
     b5c:	0f 90       	pop	r0
     b5e:	0b be       	out	0x3b, r0	; 59
     b60:	0f 90       	pop	r0
     b62:	09 be       	out	0x39, r0	; 57
     b64:	0f 90       	pop	r0
     b66:	08 be       	out	0x38, r0	; 56
     b68:	0f 90       	pop	r0
     b6a:	0f be       	out	0x3f, r0	; 63
     b6c:	0f 90       	pop	r0
     b6e:	1f 90       	pop	r1
     b70:	18 95       	reti

00000b72 <__vector_81>:
     b72:	1f 92       	push	r1
     b74:	0f 92       	push	r0
     b76:	0f b6       	in	r0, 0x3f	; 63
     b78:	0f 92       	push	r0
     b7a:	11 24       	eor	r1, r1
     b7c:	08 b6       	in	r0, 0x38	; 56
     b7e:	0f 92       	push	r0
     b80:	18 be       	out	0x38, r1	; 56
     b82:	09 b6       	in	r0, 0x39	; 57
     b84:	0f 92       	push	r0
     b86:	19 be       	out	0x39, r1	; 57
     b88:	0b b6       	in	r0, 0x3b	; 59
     b8a:	0f 92       	push	r0
     b8c:	1b be       	out	0x3b, r1	; 59
     b8e:	2f 93       	push	r18
     b90:	3f 93       	push	r19
     b92:	4f 93       	push	r20
     b94:	5f 93       	push	r21
     b96:	6f 93       	push	r22
     b98:	7f 93       	push	r23
     b9a:	8f 93       	push	r24
     b9c:	9f 93       	push	r25
     b9e:	af 93       	push	r26
     ba0:	bf 93       	push	r27
     ba2:	ef 93       	push	r30
     ba4:	ff 93       	push	r31
     ba6:	e0 91 9c 20 	lds	r30, 0x209C	; 0x80209c <tc_tcd0_ccc_callback>
     baa:	f0 91 9d 20 	lds	r31, 0x209D	; 0x80209d <tc_tcd0_ccc_callback+0x1>
     bae:	30 97       	sbiw	r30, 0x00	; 0
     bb0:	09 f0       	breq	.+2      	; 0xbb4 <__vector_81+0x42>
     bb2:	19 95       	eicall
     bb4:	ff 91       	pop	r31
     bb6:	ef 91       	pop	r30
     bb8:	bf 91       	pop	r27
     bba:	af 91       	pop	r26
     bbc:	9f 91       	pop	r25
     bbe:	8f 91       	pop	r24
     bc0:	7f 91       	pop	r23
     bc2:	6f 91       	pop	r22
     bc4:	5f 91       	pop	r21
     bc6:	4f 91       	pop	r20
     bc8:	3f 91       	pop	r19
     bca:	2f 91       	pop	r18
     bcc:	0f 90       	pop	r0
     bce:	0b be       	out	0x3b, r0	; 59
     bd0:	0f 90       	pop	r0
     bd2:	09 be       	out	0x39, r0	; 57
     bd4:	0f 90       	pop	r0
     bd6:	08 be       	out	0x38, r0	; 56
     bd8:	0f 90       	pop	r0
     bda:	0f be       	out	0x3f, r0	; 63
     bdc:	0f 90       	pop	r0
     bde:	1f 90       	pop	r1
     be0:	18 95       	reti

00000be2 <__vector_82>:
     be2:	1f 92       	push	r1
     be4:	0f 92       	push	r0
     be6:	0f b6       	in	r0, 0x3f	; 63
     be8:	0f 92       	push	r0
     bea:	11 24       	eor	r1, r1
     bec:	08 b6       	in	r0, 0x38	; 56
     bee:	0f 92       	push	r0
     bf0:	18 be       	out	0x38, r1	; 56
     bf2:	09 b6       	in	r0, 0x39	; 57
     bf4:	0f 92       	push	r0
     bf6:	19 be       	out	0x39, r1	; 57
     bf8:	0b b6       	in	r0, 0x3b	; 59
     bfa:	0f 92       	push	r0
     bfc:	1b be       	out	0x3b, r1	; 59
     bfe:	2f 93       	push	r18
     c00:	3f 93       	push	r19
     c02:	4f 93       	push	r20
     c04:	5f 93       	push	r21
     c06:	6f 93       	push	r22
     c08:	7f 93       	push	r23
     c0a:	8f 93       	push	r24
     c0c:	9f 93       	push	r25
     c0e:	af 93       	push	r26
     c10:	bf 93       	push	r27
     c12:	ef 93       	push	r30
     c14:	ff 93       	push	r31
     c16:	e0 91 9a 20 	lds	r30, 0x209A	; 0x80209a <tc_tcd0_ccd_callback>
     c1a:	f0 91 9b 20 	lds	r31, 0x209B	; 0x80209b <tc_tcd0_ccd_callback+0x1>
     c1e:	30 97       	sbiw	r30, 0x00	; 0
     c20:	09 f0       	breq	.+2      	; 0xc24 <__vector_82+0x42>
     c22:	19 95       	eicall
     c24:	ff 91       	pop	r31
     c26:	ef 91       	pop	r30
     c28:	bf 91       	pop	r27
     c2a:	af 91       	pop	r26
     c2c:	9f 91       	pop	r25
     c2e:	8f 91       	pop	r24
     c30:	7f 91       	pop	r23
     c32:	6f 91       	pop	r22
     c34:	5f 91       	pop	r21
     c36:	4f 91       	pop	r20
     c38:	3f 91       	pop	r19
     c3a:	2f 91       	pop	r18
     c3c:	0f 90       	pop	r0
     c3e:	0b be       	out	0x3b, r0	; 59
     c40:	0f 90       	pop	r0
     c42:	09 be       	out	0x39, r0	; 57
     c44:	0f 90       	pop	r0
     c46:	08 be       	out	0x38, r0	; 56
     c48:	0f 90       	pop	r0
     c4a:	0f be       	out	0x3f, r0	; 63
     c4c:	0f 90       	pop	r0
     c4e:	1f 90       	pop	r1
     c50:	18 95       	reti

00000c52 <__vector_83>:
     c52:	1f 92       	push	r1
     c54:	0f 92       	push	r0
     c56:	0f b6       	in	r0, 0x3f	; 63
     c58:	0f 92       	push	r0
     c5a:	11 24       	eor	r1, r1
     c5c:	08 b6       	in	r0, 0x38	; 56
     c5e:	0f 92       	push	r0
     c60:	18 be       	out	0x38, r1	; 56
     c62:	09 b6       	in	r0, 0x39	; 57
     c64:	0f 92       	push	r0
     c66:	19 be       	out	0x39, r1	; 57
     c68:	0b b6       	in	r0, 0x3b	; 59
     c6a:	0f 92       	push	r0
     c6c:	1b be       	out	0x3b, r1	; 59
     c6e:	2f 93       	push	r18
     c70:	3f 93       	push	r19
     c72:	4f 93       	push	r20
     c74:	5f 93       	push	r21
     c76:	6f 93       	push	r22
     c78:	7f 93       	push	r23
     c7a:	8f 93       	push	r24
     c7c:	9f 93       	push	r25
     c7e:	af 93       	push	r26
     c80:	bf 93       	push	r27
     c82:	ef 93       	push	r30
     c84:	ff 93       	push	r31
     c86:	e0 91 98 20 	lds	r30, 0x2098	; 0x802098 <tc_tcd1_ovf_callback>
     c8a:	f0 91 99 20 	lds	r31, 0x2099	; 0x802099 <tc_tcd1_ovf_callback+0x1>
     c8e:	30 97       	sbiw	r30, 0x00	; 0
     c90:	09 f0       	breq	.+2      	; 0xc94 <__vector_83+0x42>
     c92:	19 95       	eicall
     c94:	ff 91       	pop	r31
     c96:	ef 91       	pop	r30
     c98:	bf 91       	pop	r27
     c9a:	af 91       	pop	r26
     c9c:	9f 91       	pop	r25
     c9e:	8f 91       	pop	r24
     ca0:	7f 91       	pop	r23
     ca2:	6f 91       	pop	r22
     ca4:	5f 91       	pop	r21
     ca6:	4f 91       	pop	r20
     ca8:	3f 91       	pop	r19
     caa:	2f 91       	pop	r18
     cac:	0f 90       	pop	r0
     cae:	0b be       	out	0x3b, r0	; 59
     cb0:	0f 90       	pop	r0
     cb2:	09 be       	out	0x39, r0	; 57
     cb4:	0f 90       	pop	r0
     cb6:	08 be       	out	0x38, r0	; 56
     cb8:	0f 90       	pop	r0
     cba:	0f be       	out	0x3f, r0	; 63
     cbc:	0f 90       	pop	r0
     cbe:	1f 90       	pop	r1
     cc0:	18 95       	reti

00000cc2 <__vector_84>:
     cc2:	1f 92       	push	r1
     cc4:	0f 92       	push	r0
     cc6:	0f b6       	in	r0, 0x3f	; 63
     cc8:	0f 92       	push	r0
     cca:	11 24       	eor	r1, r1
     ccc:	08 b6       	in	r0, 0x38	; 56
     cce:	0f 92       	push	r0
     cd0:	18 be       	out	0x38, r1	; 56
     cd2:	09 b6       	in	r0, 0x39	; 57
     cd4:	0f 92       	push	r0
     cd6:	19 be       	out	0x39, r1	; 57
     cd8:	0b b6       	in	r0, 0x3b	; 59
     cda:	0f 92       	push	r0
     cdc:	1b be       	out	0x3b, r1	; 59
     cde:	2f 93       	push	r18
     ce0:	3f 93       	push	r19
     ce2:	4f 93       	push	r20
     ce4:	5f 93       	push	r21
     ce6:	6f 93       	push	r22
     ce8:	7f 93       	push	r23
     cea:	8f 93       	push	r24
     cec:	9f 93       	push	r25
     cee:	af 93       	push	r26
     cf0:	bf 93       	push	r27
     cf2:	ef 93       	push	r30
     cf4:	ff 93       	push	r31
     cf6:	e0 91 96 20 	lds	r30, 0x2096	; 0x802096 <tc_tcd1_err_callback>
     cfa:	f0 91 97 20 	lds	r31, 0x2097	; 0x802097 <tc_tcd1_err_callback+0x1>
     cfe:	30 97       	sbiw	r30, 0x00	; 0
     d00:	09 f0       	breq	.+2      	; 0xd04 <__vector_84+0x42>
     d02:	19 95       	eicall
     d04:	ff 91       	pop	r31
     d06:	ef 91       	pop	r30
     d08:	bf 91       	pop	r27
     d0a:	af 91       	pop	r26
     d0c:	9f 91       	pop	r25
     d0e:	8f 91       	pop	r24
     d10:	7f 91       	pop	r23
     d12:	6f 91       	pop	r22
     d14:	5f 91       	pop	r21
     d16:	4f 91       	pop	r20
     d18:	3f 91       	pop	r19
     d1a:	2f 91       	pop	r18
     d1c:	0f 90       	pop	r0
     d1e:	0b be       	out	0x3b, r0	; 59
     d20:	0f 90       	pop	r0
     d22:	09 be       	out	0x39, r0	; 57
     d24:	0f 90       	pop	r0
     d26:	08 be       	out	0x38, r0	; 56
     d28:	0f 90       	pop	r0
     d2a:	0f be       	out	0x3f, r0	; 63
     d2c:	0f 90       	pop	r0
     d2e:	1f 90       	pop	r1
     d30:	18 95       	reti

00000d32 <__vector_85>:
     d32:	1f 92       	push	r1
     d34:	0f 92       	push	r0
     d36:	0f b6       	in	r0, 0x3f	; 63
     d38:	0f 92       	push	r0
     d3a:	11 24       	eor	r1, r1
     d3c:	08 b6       	in	r0, 0x38	; 56
     d3e:	0f 92       	push	r0
     d40:	18 be       	out	0x38, r1	; 56
     d42:	09 b6       	in	r0, 0x39	; 57
     d44:	0f 92       	push	r0
     d46:	19 be       	out	0x39, r1	; 57
     d48:	0b b6       	in	r0, 0x3b	; 59
     d4a:	0f 92       	push	r0
     d4c:	1b be       	out	0x3b, r1	; 59
     d4e:	2f 93       	push	r18
     d50:	3f 93       	push	r19
     d52:	4f 93       	push	r20
     d54:	5f 93       	push	r21
     d56:	6f 93       	push	r22
     d58:	7f 93       	push	r23
     d5a:	8f 93       	push	r24
     d5c:	9f 93       	push	r25
     d5e:	af 93       	push	r26
     d60:	bf 93       	push	r27
     d62:	ef 93       	push	r30
     d64:	ff 93       	push	r31
     d66:	e0 91 94 20 	lds	r30, 0x2094	; 0x802094 <tc_tcd1_cca_callback>
     d6a:	f0 91 95 20 	lds	r31, 0x2095	; 0x802095 <tc_tcd1_cca_callback+0x1>
     d6e:	30 97       	sbiw	r30, 0x00	; 0
     d70:	09 f0       	breq	.+2      	; 0xd74 <__vector_85+0x42>
     d72:	19 95       	eicall
     d74:	ff 91       	pop	r31
     d76:	ef 91       	pop	r30
     d78:	bf 91       	pop	r27
     d7a:	af 91       	pop	r26
     d7c:	9f 91       	pop	r25
     d7e:	8f 91       	pop	r24
     d80:	7f 91       	pop	r23
     d82:	6f 91       	pop	r22
     d84:	5f 91       	pop	r21
     d86:	4f 91       	pop	r20
     d88:	3f 91       	pop	r19
     d8a:	2f 91       	pop	r18
     d8c:	0f 90       	pop	r0
     d8e:	0b be       	out	0x3b, r0	; 59
     d90:	0f 90       	pop	r0
     d92:	09 be       	out	0x39, r0	; 57
     d94:	0f 90       	pop	r0
     d96:	08 be       	out	0x38, r0	; 56
     d98:	0f 90       	pop	r0
     d9a:	0f be       	out	0x3f, r0	; 63
     d9c:	0f 90       	pop	r0
     d9e:	1f 90       	pop	r1
     da0:	18 95       	reti

00000da2 <__vector_86>:
     da2:	1f 92       	push	r1
     da4:	0f 92       	push	r0
     da6:	0f b6       	in	r0, 0x3f	; 63
     da8:	0f 92       	push	r0
     daa:	11 24       	eor	r1, r1
     dac:	08 b6       	in	r0, 0x38	; 56
     dae:	0f 92       	push	r0
     db0:	18 be       	out	0x38, r1	; 56
     db2:	09 b6       	in	r0, 0x39	; 57
     db4:	0f 92       	push	r0
     db6:	19 be       	out	0x39, r1	; 57
     db8:	0b b6       	in	r0, 0x3b	; 59
     dba:	0f 92       	push	r0
     dbc:	1b be       	out	0x3b, r1	; 59
     dbe:	2f 93       	push	r18
     dc0:	3f 93       	push	r19
     dc2:	4f 93       	push	r20
     dc4:	5f 93       	push	r21
     dc6:	6f 93       	push	r22
     dc8:	7f 93       	push	r23
     dca:	8f 93       	push	r24
     dcc:	9f 93       	push	r25
     dce:	af 93       	push	r26
     dd0:	bf 93       	push	r27
     dd2:	ef 93       	push	r30
     dd4:	ff 93       	push	r31
     dd6:	e0 91 92 20 	lds	r30, 0x2092	; 0x802092 <tc_tcd1_ccb_callback>
     dda:	f0 91 93 20 	lds	r31, 0x2093	; 0x802093 <tc_tcd1_ccb_callback+0x1>
     dde:	30 97       	sbiw	r30, 0x00	; 0
     de0:	09 f0       	breq	.+2      	; 0xde4 <__vector_86+0x42>
     de2:	19 95       	eicall
     de4:	ff 91       	pop	r31
     de6:	ef 91       	pop	r30
     de8:	bf 91       	pop	r27
     dea:	af 91       	pop	r26
     dec:	9f 91       	pop	r25
     dee:	8f 91       	pop	r24
     df0:	7f 91       	pop	r23
     df2:	6f 91       	pop	r22
     df4:	5f 91       	pop	r21
     df6:	4f 91       	pop	r20
     df8:	3f 91       	pop	r19
     dfa:	2f 91       	pop	r18
     dfc:	0f 90       	pop	r0
     dfe:	0b be       	out	0x3b, r0	; 59
     e00:	0f 90       	pop	r0
     e02:	09 be       	out	0x39, r0	; 57
     e04:	0f 90       	pop	r0
     e06:	08 be       	out	0x38, r0	; 56
     e08:	0f 90       	pop	r0
     e0a:	0f be       	out	0x3f, r0	; 63
     e0c:	0f 90       	pop	r0
     e0e:	1f 90       	pop	r1
     e10:	18 95       	reti

00000e12 <__vector_47>:
     e12:	1f 92       	push	r1
     e14:	0f 92       	push	r0
     e16:	0f b6       	in	r0, 0x3f	; 63
     e18:	0f 92       	push	r0
     e1a:	11 24       	eor	r1, r1
     e1c:	08 b6       	in	r0, 0x38	; 56
     e1e:	0f 92       	push	r0
     e20:	18 be       	out	0x38, r1	; 56
     e22:	09 b6       	in	r0, 0x39	; 57
     e24:	0f 92       	push	r0
     e26:	19 be       	out	0x39, r1	; 57
     e28:	0b b6       	in	r0, 0x3b	; 59
     e2a:	0f 92       	push	r0
     e2c:	1b be       	out	0x3b, r1	; 59
     e2e:	2f 93       	push	r18
     e30:	3f 93       	push	r19
     e32:	4f 93       	push	r20
     e34:	5f 93       	push	r21
     e36:	6f 93       	push	r22
     e38:	7f 93       	push	r23
     e3a:	8f 93       	push	r24
     e3c:	9f 93       	push	r25
     e3e:	af 93       	push	r26
     e40:	bf 93       	push	r27
     e42:	ef 93       	push	r30
     e44:	ff 93       	push	r31
     e46:	e0 91 90 20 	lds	r30, 0x2090	; 0x802090 <tc_tce0_ovf_callback>
     e4a:	f0 91 91 20 	lds	r31, 0x2091	; 0x802091 <tc_tce0_ovf_callback+0x1>
     e4e:	30 97       	sbiw	r30, 0x00	; 0
     e50:	09 f0       	breq	.+2      	; 0xe54 <__vector_47+0x42>
     e52:	19 95       	eicall
     e54:	ff 91       	pop	r31
     e56:	ef 91       	pop	r30
     e58:	bf 91       	pop	r27
     e5a:	af 91       	pop	r26
     e5c:	9f 91       	pop	r25
     e5e:	8f 91       	pop	r24
     e60:	7f 91       	pop	r23
     e62:	6f 91       	pop	r22
     e64:	5f 91       	pop	r21
     e66:	4f 91       	pop	r20
     e68:	3f 91       	pop	r19
     e6a:	2f 91       	pop	r18
     e6c:	0f 90       	pop	r0
     e6e:	0b be       	out	0x3b, r0	; 59
     e70:	0f 90       	pop	r0
     e72:	09 be       	out	0x39, r0	; 57
     e74:	0f 90       	pop	r0
     e76:	08 be       	out	0x38, r0	; 56
     e78:	0f 90       	pop	r0
     e7a:	0f be       	out	0x3f, r0	; 63
     e7c:	0f 90       	pop	r0
     e7e:	1f 90       	pop	r1
     e80:	18 95       	reti

00000e82 <__vector_48>:
     e82:	1f 92       	push	r1
     e84:	0f 92       	push	r0
     e86:	0f b6       	in	r0, 0x3f	; 63
     e88:	0f 92       	push	r0
     e8a:	11 24       	eor	r1, r1
     e8c:	08 b6       	in	r0, 0x38	; 56
     e8e:	0f 92       	push	r0
     e90:	18 be       	out	0x38, r1	; 56
     e92:	09 b6       	in	r0, 0x39	; 57
     e94:	0f 92       	push	r0
     e96:	19 be       	out	0x39, r1	; 57
     e98:	0b b6       	in	r0, 0x3b	; 59
     e9a:	0f 92       	push	r0
     e9c:	1b be       	out	0x3b, r1	; 59
     e9e:	2f 93       	push	r18
     ea0:	3f 93       	push	r19
     ea2:	4f 93       	push	r20
     ea4:	5f 93       	push	r21
     ea6:	6f 93       	push	r22
     ea8:	7f 93       	push	r23
     eaa:	8f 93       	push	r24
     eac:	9f 93       	push	r25
     eae:	af 93       	push	r26
     eb0:	bf 93       	push	r27
     eb2:	ef 93       	push	r30
     eb4:	ff 93       	push	r31
     eb6:	e0 91 8e 20 	lds	r30, 0x208E	; 0x80208e <tc_tce0_err_callback>
     eba:	f0 91 8f 20 	lds	r31, 0x208F	; 0x80208f <tc_tce0_err_callback+0x1>
     ebe:	30 97       	sbiw	r30, 0x00	; 0
     ec0:	09 f0       	breq	.+2      	; 0xec4 <__vector_48+0x42>
     ec2:	19 95       	eicall
     ec4:	ff 91       	pop	r31
     ec6:	ef 91       	pop	r30
     ec8:	bf 91       	pop	r27
     eca:	af 91       	pop	r26
     ecc:	9f 91       	pop	r25
     ece:	8f 91       	pop	r24
     ed0:	7f 91       	pop	r23
     ed2:	6f 91       	pop	r22
     ed4:	5f 91       	pop	r21
     ed6:	4f 91       	pop	r20
     ed8:	3f 91       	pop	r19
     eda:	2f 91       	pop	r18
     edc:	0f 90       	pop	r0
     ede:	0b be       	out	0x3b, r0	; 59
     ee0:	0f 90       	pop	r0
     ee2:	09 be       	out	0x39, r0	; 57
     ee4:	0f 90       	pop	r0
     ee6:	08 be       	out	0x38, r0	; 56
     ee8:	0f 90       	pop	r0
     eea:	0f be       	out	0x3f, r0	; 63
     eec:	0f 90       	pop	r0
     eee:	1f 90       	pop	r1
     ef0:	18 95       	reti

00000ef2 <__vector_49>:
     ef2:	1f 92       	push	r1
     ef4:	0f 92       	push	r0
     ef6:	0f b6       	in	r0, 0x3f	; 63
     ef8:	0f 92       	push	r0
     efa:	11 24       	eor	r1, r1
     efc:	08 b6       	in	r0, 0x38	; 56
     efe:	0f 92       	push	r0
     f00:	18 be       	out	0x38, r1	; 56
     f02:	09 b6       	in	r0, 0x39	; 57
     f04:	0f 92       	push	r0
     f06:	19 be       	out	0x39, r1	; 57
     f08:	0b b6       	in	r0, 0x3b	; 59
     f0a:	0f 92       	push	r0
     f0c:	1b be       	out	0x3b, r1	; 59
     f0e:	2f 93       	push	r18
     f10:	3f 93       	push	r19
     f12:	4f 93       	push	r20
     f14:	5f 93       	push	r21
     f16:	6f 93       	push	r22
     f18:	7f 93       	push	r23
     f1a:	8f 93       	push	r24
     f1c:	9f 93       	push	r25
     f1e:	af 93       	push	r26
     f20:	bf 93       	push	r27
     f22:	ef 93       	push	r30
     f24:	ff 93       	push	r31
     f26:	e0 91 8c 20 	lds	r30, 0x208C	; 0x80208c <tc_tce0_cca_callback>
     f2a:	f0 91 8d 20 	lds	r31, 0x208D	; 0x80208d <tc_tce0_cca_callback+0x1>
     f2e:	30 97       	sbiw	r30, 0x00	; 0
     f30:	09 f0       	breq	.+2      	; 0xf34 <__vector_49+0x42>
     f32:	19 95       	eicall
     f34:	ff 91       	pop	r31
     f36:	ef 91       	pop	r30
     f38:	bf 91       	pop	r27
     f3a:	af 91       	pop	r26
     f3c:	9f 91       	pop	r25
     f3e:	8f 91       	pop	r24
     f40:	7f 91       	pop	r23
     f42:	6f 91       	pop	r22
     f44:	5f 91       	pop	r21
     f46:	4f 91       	pop	r20
     f48:	3f 91       	pop	r19
     f4a:	2f 91       	pop	r18
     f4c:	0f 90       	pop	r0
     f4e:	0b be       	out	0x3b, r0	; 59
     f50:	0f 90       	pop	r0
     f52:	09 be       	out	0x39, r0	; 57
     f54:	0f 90       	pop	r0
     f56:	08 be       	out	0x38, r0	; 56
     f58:	0f 90       	pop	r0
     f5a:	0f be       	out	0x3f, r0	; 63
     f5c:	0f 90       	pop	r0
     f5e:	1f 90       	pop	r1
     f60:	18 95       	reti

00000f62 <__vector_50>:
     f62:	1f 92       	push	r1
     f64:	0f 92       	push	r0
     f66:	0f b6       	in	r0, 0x3f	; 63
     f68:	0f 92       	push	r0
     f6a:	11 24       	eor	r1, r1
     f6c:	08 b6       	in	r0, 0x38	; 56
     f6e:	0f 92       	push	r0
     f70:	18 be       	out	0x38, r1	; 56
     f72:	09 b6       	in	r0, 0x39	; 57
     f74:	0f 92       	push	r0
     f76:	19 be       	out	0x39, r1	; 57
     f78:	0b b6       	in	r0, 0x3b	; 59
     f7a:	0f 92       	push	r0
     f7c:	1b be       	out	0x3b, r1	; 59
     f7e:	2f 93       	push	r18
     f80:	3f 93       	push	r19
     f82:	4f 93       	push	r20
     f84:	5f 93       	push	r21
     f86:	6f 93       	push	r22
     f88:	7f 93       	push	r23
     f8a:	8f 93       	push	r24
     f8c:	9f 93       	push	r25
     f8e:	af 93       	push	r26
     f90:	bf 93       	push	r27
     f92:	ef 93       	push	r30
     f94:	ff 93       	push	r31
     f96:	e0 91 8a 20 	lds	r30, 0x208A	; 0x80208a <tc_tce0_ccb_callback>
     f9a:	f0 91 8b 20 	lds	r31, 0x208B	; 0x80208b <tc_tce0_ccb_callback+0x1>
     f9e:	30 97       	sbiw	r30, 0x00	; 0
     fa0:	09 f0       	breq	.+2      	; 0xfa4 <__vector_50+0x42>
     fa2:	19 95       	eicall
     fa4:	ff 91       	pop	r31
     fa6:	ef 91       	pop	r30
     fa8:	bf 91       	pop	r27
     faa:	af 91       	pop	r26
     fac:	9f 91       	pop	r25
     fae:	8f 91       	pop	r24
     fb0:	7f 91       	pop	r23
     fb2:	6f 91       	pop	r22
     fb4:	5f 91       	pop	r21
     fb6:	4f 91       	pop	r20
     fb8:	3f 91       	pop	r19
     fba:	2f 91       	pop	r18
     fbc:	0f 90       	pop	r0
     fbe:	0b be       	out	0x3b, r0	; 59
     fc0:	0f 90       	pop	r0
     fc2:	09 be       	out	0x39, r0	; 57
     fc4:	0f 90       	pop	r0
     fc6:	08 be       	out	0x38, r0	; 56
     fc8:	0f 90       	pop	r0
     fca:	0f be       	out	0x3f, r0	; 63
     fcc:	0f 90       	pop	r0
     fce:	1f 90       	pop	r1
     fd0:	18 95       	reti

00000fd2 <__vector_51>:
     fd2:	1f 92       	push	r1
     fd4:	0f 92       	push	r0
     fd6:	0f b6       	in	r0, 0x3f	; 63
     fd8:	0f 92       	push	r0
     fda:	11 24       	eor	r1, r1
     fdc:	08 b6       	in	r0, 0x38	; 56
     fde:	0f 92       	push	r0
     fe0:	18 be       	out	0x38, r1	; 56
     fe2:	09 b6       	in	r0, 0x39	; 57
     fe4:	0f 92       	push	r0
     fe6:	19 be       	out	0x39, r1	; 57
     fe8:	0b b6       	in	r0, 0x3b	; 59
     fea:	0f 92       	push	r0
     fec:	1b be       	out	0x3b, r1	; 59
     fee:	2f 93       	push	r18
     ff0:	3f 93       	push	r19
     ff2:	4f 93       	push	r20
     ff4:	5f 93       	push	r21
     ff6:	6f 93       	push	r22
     ff8:	7f 93       	push	r23
     ffa:	8f 93       	push	r24
     ffc:	9f 93       	push	r25
     ffe:	af 93       	push	r26
    1000:	bf 93       	push	r27
    1002:	ef 93       	push	r30
    1004:	ff 93       	push	r31
    1006:	e0 91 88 20 	lds	r30, 0x2088	; 0x802088 <tc_tce0_ccc_callback>
    100a:	f0 91 89 20 	lds	r31, 0x2089	; 0x802089 <tc_tce0_ccc_callback+0x1>
    100e:	30 97       	sbiw	r30, 0x00	; 0
    1010:	09 f0       	breq	.+2      	; 0x1014 <__vector_51+0x42>
    1012:	19 95       	eicall
    1014:	ff 91       	pop	r31
    1016:	ef 91       	pop	r30
    1018:	bf 91       	pop	r27
    101a:	af 91       	pop	r26
    101c:	9f 91       	pop	r25
    101e:	8f 91       	pop	r24
    1020:	7f 91       	pop	r23
    1022:	6f 91       	pop	r22
    1024:	5f 91       	pop	r21
    1026:	4f 91       	pop	r20
    1028:	3f 91       	pop	r19
    102a:	2f 91       	pop	r18
    102c:	0f 90       	pop	r0
    102e:	0b be       	out	0x3b, r0	; 59
    1030:	0f 90       	pop	r0
    1032:	09 be       	out	0x39, r0	; 57
    1034:	0f 90       	pop	r0
    1036:	08 be       	out	0x38, r0	; 56
    1038:	0f 90       	pop	r0
    103a:	0f be       	out	0x3f, r0	; 63
    103c:	0f 90       	pop	r0
    103e:	1f 90       	pop	r1
    1040:	18 95       	reti

00001042 <__vector_52>:
    1042:	1f 92       	push	r1
    1044:	0f 92       	push	r0
    1046:	0f b6       	in	r0, 0x3f	; 63
    1048:	0f 92       	push	r0
    104a:	11 24       	eor	r1, r1
    104c:	08 b6       	in	r0, 0x38	; 56
    104e:	0f 92       	push	r0
    1050:	18 be       	out	0x38, r1	; 56
    1052:	09 b6       	in	r0, 0x39	; 57
    1054:	0f 92       	push	r0
    1056:	19 be       	out	0x39, r1	; 57
    1058:	0b b6       	in	r0, 0x3b	; 59
    105a:	0f 92       	push	r0
    105c:	1b be       	out	0x3b, r1	; 59
    105e:	2f 93       	push	r18
    1060:	3f 93       	push	r19
    1062:	4f 93       	push	r20
    1064:	5f 93       	push	r21
    1066:	6f 93       	push	r22
    1068:	7f 93       	push	r23
    106a:	8f 93       	push	r24
    106c:	9f 93       	push	r25
    106e:	af 93       	push	r26
    1070:	bf 93       	push	r27
    1072:	ef 93       	push	r30
    1074:	ff 93       	push	r31
    1076:	e0 91 86 20 	lds	r30, 0x2086	; 0x802086 <tc_tce0_ccd_callback>
    107a:	f0 91 87 20 	lds	r31, 0x2087	; 0x802087 <tc_tce0_ccd_callback+0x1>
    107e:	30 97       	sbiw	r30, 0x00	; 0
    1080:	09 f0       	breq	.+2      	; 0x1084 <__vector_52+0x42>
    1082:	19 95       	eicall
    1084:	ff 91       	pop	r31
    1086:	ef 91       	pop	r30
    1088:	bf 91       	pop	r27
    108a:	af 91       	pop	r26
    108c:	9f 91       	pop	r25
    108e:	8f 91       	pop	r24
    1090:	7f 91       	pop	r23
    1092:	6f 91       	pop	r22
    1094:	5f 91       	pop	r21
    1096:	4f 91       	pop	r20
    1098:	3f 91       	pop	r19
    109a:	2f 91       	pop	r18
    109c:	0f 90       	pop	r0
    109e:	0b be       	out	0x3b, r0	; 59
    10a0:	0f 90       	pop	r0
    10a2:	09 be       	out	0x39, r0	; 57
    10a4:	0f 90       	pop	r0
    10a6:	08 be       	out	0x38, r0	; 56
    10a8:	0f 90       	pop	r0
    10aa:	0f be       	out	0x3f, r0	; 63
    10ac:	0f 90       	pop	r0
    10ae:	1f 90       	pop	r1
    10b0:	18 95       	reti

000010b2 <__vector_53>:
    10b2:	1f 92       	push	r1
    10b4:	0f 92       	push	r0
    10b6:	0f b6       	in	r0, 0x3f	; 63
    10b8:	0f 92       	push	r0
    10ba:	11 24       	eor	r1, r1
    10bc:	08 b6       	in	r0, 0x38	; 56
    10be:	0f 92       	push	r0
    10c0:	18 be       	out	0x38, r1	; 56
    10c2:	09 b6       	in	r0, 0x39	; 57
    10c4:	0f 92       	push	r0
    10c6:	19 be       	out	0x39, r1	; 57
    10c8:	0b b6       	in	r0, 0x3b	; 59
    10ca:	0f 92       	push	r0
    10cc:	1b be       	out	0x3b, r1	; 59
    10ce:	2f 93       	push	r18
    10d0:	3f 93       	push	r19
    10d2:	4f 93       	push	r20
    10d4:	5f 93       	push	r21
    10d6:	6f 93       	push	r22
    10d8:	7f 93       	push	r23
    10da:	8f 93       	push	r24
    10dc:	9f 93       	push	r25
    10de:	af 93       	push	r26
    10e0:	bf 93       	push	r27
    10e2:	ef 93       	push	r30
    10e4:	ff 93       	push	r31
    10e6:	e0 91 84 20 	lds	r30, 0x2084	; 0x802084 <tc_tce1_ovf_callback>
    10ea:	f0 91 85 20 	lds	r31, 0x2085	; 0x802085 <tc_tce1_ovf_callback+0x1>
    10ee:	30 97       	sbiw	r30, 0x00	; 0
    10f0:	09 f0       	breq	.+2      	; 0x10f4 <__vector_53+0x42>
    10f2:	19 95       	eicall
    10f4:	ff 91       	pop	r31
    10f6:	ef 91       	pop	r30
    10f8:	bf 91       	pop	r27
    10fa:	af 91       	pop	r26
    10fc:	9f 91       	pop	r25
    10fe:	8f 91       	pop	r24
    1100:	7f 91       	pop	r23
    1102:	6f 91       	pop	r22
    1104:	5f 91       	pop	r21
    1106:	4f 91       	pop	r20
    1108:	3f 91       	pop	r19
    110a:	2f 91       	pop	r18
    110c:	0f 90       	pop	r0
    110e:	0b be       	out	0x3b, r0	; 59
    1110:	0f 90       	pop	r0
    1112:	09 be       	out	0x39, r0	; 57
    1114:	0f 90       	pop	r0
    1116:	08 be       	out	0x38, r0	; 56
    1118:	0f 90       	pop	r0
    111a:	0f be       	out	0x3f, r0	; 63
    111c:	0f 90       	pop	r0
    111e:	1f 90       	pop	r1
    1120:	18 95       	reti

00001122 <__vector_54>:
    1122:	1f 92       	push	r1
    1124:	0f 92       	push	r0
    1126:	0f b6       	in	r0, 0x3f	; 63
    1128:	0f 92       	push	r0
    112a:	11 24       	eor	r1, r1
    112c:	08 b6       	in	r0, 0x38	; 56
    112e:	0f 92       	push	r0
    1130:	18 be       	out	0x38, r1	; 56
    1132:	09 b6       	in	r0, 0x39	; 57
    1134:	0f 92       	push	r0
    1136:	19 be       	out	0x39, r1	; 57
    1138:	0b b6       	in	r0, 0x3b	; 59
    113a:	0f 92       	push	r0
    113c:	1b be       	out	0x3b, r1	; 59
    113e:	2f 93       	push	r18
    1140:	3f 93       	push	r19
    1142:	4f 93       	push	r20
    1144:	5f 93       	push	r21
    1146:	6f 93       	push	r22
    1148:	7f 93       	push	r23
    114a:	8f 93       	push	r24
    114c:	9f 93       	push	r25
    114e:	af 93       	push	r26
    1150:	bf 93       	push	r27
    1152:	ef 93       	push	r30
    1154:	ff 93       	push	r31
    1156:	e0 91 82 20 	lds	r30, 0x2082	; 0x802082 <tc_tce1_err_callback>
    115a:	f0 91 83 20 	lds	r31, 0x2083	; 0x802083 <tc_tce1_err_callback+0x1>
    115e:	30 97       	sbiw	r30, 0x00	; 0
    1160:	09 f0       	breq	.+2      	; 0x1164 <__vector_54+0x42>
    1162:	19 95       	eicall
    1164:	ff 91       	pop	r31
    1166:	ef 91       	pop	r30
    1168:	bf 91       	pop	r27
    116a:	af 91       	pop	r26
    116c:	9f 91       	pop	r25
    116e:	8f 91       	pop	r24
    1170:	7f 91       	pop	r23
    1172:	6f 91       	pop	r22
    1174:	5f 91       	pop	r21
    1176:	4f 91       	pop	r20
    1178:	3f 91       	pop	r19
    117a:	2f 91       	pop	r18
    117c:	0f 90       	pop	r0
    117e:	0b be       	out	0x3b, r0	; 59
    1180:	0f 90       	pop	r0
    1182:	09 be       	out	0x39, r0	; 57
    1184:	0f 90       	pop	r0
    1186:	08 be       	out	0x38, r0	; 56
    1188:	0f 90       	pop	r0
    118a:	0f be       	out	0x3f, r0	; 63
    118c:	0f 90       	pop	r0
    118e:	1f 90       	pop	r1
    1190:	18 95       	reti

00001192 <__vector_55>:
    1192:	1f 92       	push	r1
    1194:	0f 92       	push	r0
    1196:	0f b6       	in	r0, 0x3f	; 63
    1198:	0f 92       	push	r0
    119a:	11 24       	eor	r1, r1
    119c:	08 b6       	in	r0, 0x38	; 56
    119e:	0f 92       	push	r0
    11a0:	18 be       	out	0x38, r1	; 56
    11a2:	09 b6       	in	r0, 0x39	; 57
    11a4:	0f 92       	push	r0
    11a6:	19 be       	out	0x39, r1	; 57
    11a8:	0b b6       	in	r0, 0x3b	; 59
    11aa:	0f 92       	push	r0
    11ac:	1b be       	out	0x3b, r1	; 59
    11ae:	2f 93       	push	r18
    11b0:	3f 93       	push	r19
    11b2:	4f 93       	push	r20
    11b4:	5f 93       	push	r21
    11b6:	6f 93       	push	r22
    11b8:	7f 93       	push	r23
    11ba:	8f 93       	push	r24
    11bc:	9f 93       	push	r25
    11be:	af 93       	push	r26
    11c0:	bf 93       	push	r27
    11c2:	ef 93       	push	r30
    11c4:	ff 93       	push	r31
    11c6:	e0 91 80 20 	lds	r30, 0x2080	; 0x802080 <tc_tce1_cca_callback>
    11ca:	f0 91 81 20 	lds	r31, 0x2081	; 0x802081 <tc_tce1_cca_callback+0x1>
    11ce:	30 97       	sbiw	r30, 0x00	; 0
    11d0:	09 f0       	breq	.+2      	; 0x11d4 <__vector_55+0x42>
    11d2:	19 95       	eicall
    11d4:	ff 91       	pop	r31
    11d6:	ef 91       	pop	r30
    11d8:	bf 91       	pop	r27
    11da:	af 91       	pop	r26
    11dc:	9f 91       	pop	r25
    11de:	8f 91       	pop	r24
    11e0:	7f 91       	pop	r23
    11e2:	6f 91       	pop	r22
    11e4:	5f 91       	pop	r21
    11e6:	4f 91       	pop	r20
    11e8:	3f 91       	pop	r19
    11ea:	2f 91       	pop	r18
    11ec:	0f 90       	pop	r0
    11ee:	0b be       	out	0x3b, r0	; 59
    11f0:	0f 90       	pop	r0
    11f2:	09 be       	out	0x39, r0	; 57
    11f4:	0f 90       	pop	r0
    11f6:	08 be       	out	0x38, r0	; 56
    11f8:	0f 90       	pop	r0
    11fa:	0f be       	out	0x3f, r0	; 63
    11fc:	0f 90       	pop	r0
    11fe:	1f 90       	pop	r1
    1200:	18 95       	reti

00001202 <__vector_56>:
    1202:	1f 92       	push	r1
    1204:	0f 92       	push	r0
    1206:	0f b6       	in	r0, 0x3f	; 63
    1208:	0f 92       	push	r0
    120a:	11 24       	eor	r1, r1
    120c:	08 b6       	in	r0, 0x38	; 56
    120e:	0f 92       	push	r0
    1210:	18 be       	out	0x38, r1	; 56
    1212:	09 b6       	in	r0, 0x39	; 57
    1214:	0f 92       	push	r0
    1216:	19 be       	out	0x39, r1	; 57
    1218:	0b b6       	in	r0, 0x3b	; 59
    121a:	0f 92       	push	r0
    121c:	1b be       	out	0x3b, r1	; 59
    121e:	2f 93       	push	r18
    1220:	3f 93       	push	r19
    1222:	4f 93       	push	r20
    1224:	5f 93       	push	r21
    1226:	6f 93       	push	r22
    1228:	7f 93       	push	r23
    122a:	8f 93       	push	r24
    122c:	9f 93       	push	r25
    122e:	af 93       	push	r26
    1230:	bf 93       	push	r27
    1232:	ef 93       	push	r30
    1234:	ff 93       	push	r31
    1236:	e0 91 7e 20 	lds	r30, 0x207E	; 0x80207e <tc_tce1_ccb_callback>
    123a:	f0 91 7f 20 	lds	r31, 0x207F	; 0x80207f <tc_tce1_ccb_callback+0x1>
    123e:	30 97       	sbiw	r30, 0x00	; 0
    1240:	09 f0       	breq	.+2      	; 0x1244 <__vector_56+0x42>
    1242:	19 95       	eicall
    1244:	ff 91       	pop	r31
    1246:	ef 91       	pop	r30
    1248:	bf 91       	pop	r27
    124a:	af 91       	pop	r26
    124c:	9f 91       	pop	r25
    124e:	8f 91       	pop	r24
    1250:	7f 91       	pop	r23
    1252:	6f 91       	pop	r22
    1254:	5f 91       	pop	r21
    1256:	4f 91       	pop	r20
    1258:	3f 91       	pop	r19
    125a:	2f 91       	pop	r18
    125c:	0f 90       	pop	r0
    125e:	0b be       	out	0x3b, r0	; 59
    1260:	0f 90       	pop	r0
    1262:	09 be       	out	0x39, r0	; 57
    1264:	0f 90       	pop	r0
    1266:	08 be       	out	0x38, r0	; 56
    1268:	0f 90       	pop	r0
    126a:	0f be       	out	0x3f, r0	; 63
    126c:	0f 90       	pop	r0
    126e:	1f 90       	pop	r1
    1270:	18 95       	reti

00001272 <__vector_108>:
    1272:	1f 92       	push	r1
    1274:	0f 92       	push	r0
    1276:	0f b6       	in	r0, 0x3f	; 63
    1278:	0f 92       	push	r0
    127a:	11 24       	eor	r1, r1
    127c:	08 b6       	in	r0, 0x38	; 56
    127e:	0f 92       	push	r0
    1280:	18 be       	out	0x38, r1	; 56
    1282:	09 b6       	in	r0, 0x39	; 57
    1284:	0f 92       	push	r0
    1286:	19 be       	out	0x39, r1	; 57
    1288:	0b b6       	in	r0, 0x3b	; 59
    128a:	0f 92       	push	r0
    128c:	1b be       	out	0x3b, r1	; 59
    128e:	2f 93       	push	r18
    1290:	3f 93       	push	r19
    1292:	4f 93       	push	r20
    1294:	5f 93       	push	r21
    1296:	6f 93       	push	r22
    1298:	7f 93       	push	r23
    129a:	8f 93       	push	r24
    129c:	9f 93       	push	r25
    129e:	af 93       	push	r26
    12a0:	bf 93       	push	r27
    12a2:	ef 93       	push	r30
    12a4:	ff 93       	push	r31
    12a6:	e0 91 7c 20 	lds	r30, 0x207C	; 0x80207c <tc_tcf0_ovf_callback>
    12aa:	f0 91 7d 20 	lds	r31, 0x207D	; 0x80207d <tc_tcf0_ovf_callback+0x1>
    12ae:	30 97       	sbiw	r30, 0x00	; 0
    12b0:	09 f0       	breq	.+2      	; 0x12b4 <__vector_108+0x42>
    12b2:	19 95       	eicall
    12b4:	ff 91       	pop	r31
    12b6:	ef 91       	pop	r30
    12b8:	bf 91       	pop	r27
    12ba:	af 91       	pop	r26
    12bc:	9f 91       	pop	r25
    12be:	8f 91       	pop	r24
    12c0:	7f 91       	pop	r23
    12c2:	6f 91       	pop	r22
    12c4:	5f 91       	pop	r21
    12c6:	4f 91       	pop	r20
    12c8:	3f 91       	pop	r19
    12ca:	2f 91       	pop	r18
    12cc:	0f 90       	pop	r0
    12ce:	0b be       	out	0x3b, r0	; 59
    12d0:	0f 90       	pop	r0
    12d2:	09 be       	out	0x39, r0	; 57
    12d4:	0f 90       	pop	r0
    12d6:	08 be       	out	0x38, r0	; 56
    12d8:	0f 90       	pop	r0
    12da:	0f be       	out	0x3f, r0	; 63
    12dc:	0f 90       	pop	r0
    12de:	1f 90       	pop	r1
    12e0:	18 95       	reti

000012e2 <__vector_109>:
    12e2:	1f 92       	push	r1
    12e4:	0f 92       	push	r0
    12e6:	0f b6       	in	r0, 0x3f	; 63
    12e8:	0f 92       	push	r0
    12ea:	11 24       	eor	r1, r1
    12ec:	08 b6       	in	r0, 0x38	; 56
    12ee:	0f 92       	push	r0
    12f0:	18 be       	out	0x38, r1	; 56
    12f2:	09 b6       	in	r0, 0x39	; 57
    12f4:	0f 92       	push	r0
    12f6:	19 be       	out	0x39, r1	; 57
    12f8:	0b b6       	in	r0, 0x3b	; 59
    12fa:	0f 92       	push	r0
    12fc:	1b be       	out	0x3b, r1	; 59
    12fe:	2f 93       	push	r18
    1300:	3f 93       	push	r19
    1302:	4f 93       	push	r20
    1304:	5f 93       	push	r21
    1306:	6f 93       	push	r22
    1308:	7f 93       	push	r23
    130a:	8f 93       	push	r24
    130c:	9f 93       	push	r25
    130e:	af 93       	push	r26
    1310:	bf 93       	push	r27
    1312:	ef 93       	push	r30
    1314:	ff 93       	push	r31
    1316:	e0 91 7a 20 	lds	r30, 0x207A	; 0x80207a <tc_tcf0_err_callback>
    131a:	f0 91 7b 20 	lds	r31, 0x207B	; 0x80207b <tc_tcf0_err_callback+0x1>
    131e:	30 97       	sbiw	r30, 0x00	; 0
    1320:	09 f0       	breq	.+2      	; 0x1324 <__vector_109+0x42>
    1322:	19 95       	eicall
    1324:	ff 91       	pop	r31
    1326:	ef 91       	pop	r30
    1328:	bf 91       	pop	r27
    132a:	af 91       	pop	r26
    132c:	9f 91       	pop	r25
    132e:	8f 91       	pop	r24
    1330:	7f 91       	pop	r23
    1332:	6f 91       	pop	r22
    1334:	5f 91       	pop	r21
    1336:	4f 91       	pop	r20
    1338:	3f 91       	pop	r19
    133a:	2f 91       	pop	r18
    133c:	0f 90       	pop	r0
    133e:	0b be       	out	0x3b, r0	; 59
    1340:	0f 90       	pop	r0
    1342:	09 be       	out	0x39, r0	; 57
    1344:	0f 90       	pop	r0
    1346:	08 be       	out	0x38, r0	; 56
    1348:	0f 90       	pop	r0
    134a:	0f be       	out	0x3f, r0	; 63
    134c:	0f 90       	pop	r0
    134e:	1f 90       	pop	r1
    1350:	18 95       	reti

00001352 <__vector_110>:
    1352:	1f 92       	push	r1
    1354:	0f 92       	push	r0
    1356:	0f b6       	in	r0, 0x3f	; 63
    1358:	0f 92       	push	r0
    135a:	11 24       	eor	r1, r1
    135c:	08 b6       	in	r0, 0x38	; 56
    135e:	0f 92       	push	r0
    1360:	18 be       	out	0x38, r1	; 56
    1362:	09 b6       	in	r0, 0x39	; 57
    1364:	0f 92       	push	r0
    1366:	19 be       	out	0x39, r1	; 57
    1368:	0b b6       	in	r0, 0x3b	; 59
    136a:	0f 92       	push	r0
    136c:	1b be       	out	0x3b, r1	; 59
    136e:	2f 93       	push	r18
    1370:	3f 93       	push	r19
    1372:	4f 93       	push	r20
    1374:	5f 93       	push	r21
    1376:	6f 93       	push	r22
    1378:	7f 93       	push	r23
    137a:	8f 93       	push	r24
    137c:	9f 93       	push	r25
    137e:	af 93       	push	r26
    1380:	bf 93       	push	r27
    1382:	ef 93       	push	r30
    1384:	ff 93       	push	r31
    1386:	e0 91 78 20 	lds	r30, 0x2078	; 0x802078 <tc_tcf0_cca_callback>
    138a:	f0 91 79 20 	lds	r31, 0x2079	; 0x802079 <tc_tcf0_cca_callback+0x1>
    138e:	30 97       	sbiw	r30, 0x00	; 0
    1390:	09 f0       	breq	.+2      	; 0x1394 <__vector_110+0x42>
    1392:	19 95       	eicall
    1394:	ff 91       	pop	r31
    1396:	ef 91       	pop	r30
    1398:	bf 91       	pop	r27
    139a:	af 91       	pop	r26
    139c:	9f 91       	pop	r25
    139e:	8f 91       	pop	r24
    13a0:	7f 91       	pop	r23
    13a2:	6f 91       	pop	r22
    13a4:	5f 91       	pop	r21
    13a6:	4f 91       	pop	r20
    13a8:	3f 91       	pop	r19
    13aa:	2f 91       	pop	r18
    13ac:	0f 90       	pop	r0
    13ae:	0b be       	out	0x3b, r0	; 59
    13b0:	0f 90       	pop	r0
    13b2:	09 be       	out	0x39, r0	; 57
    13b4:	0f 90       	pop	r0
    13b6:	08 be       	out	0x38, r0	; 56
    13b8:	0f 90       	pop	r0
    13ba:	0f be       	out	0x3f, r0	; 63
    13bc:	0f 90       	pop	r0
    13be:	1f 90       	pop	r1
    13c0:	18 95       	reti

000013c2 <__vector_111>:
    13c2:	1f 92       	push	r1
    13c4:	0f 92       	push	r0
    13c6:	0f b6       	in	r0, 0x3f	; 63
    13c8:	0f 92       	push	r0
    13ca:	11 24       	eor	r1, r1
    13cc:	08 b6       	in	r0, 0x38	; 56
    13ce:	0f 92       	push	r0
    13d0:	18 be       	out	0x38, r1	; 56
    13d2:	09 b6       	in	r0, 0x39	; 57
    13d4:	0f 92       	push	r0
    13d6:	19 be       	out	0x39, r1	; 57
    13d8:	0b b6       	in	r0, 0x3b	; 59
    13da:	0f 92       	push	r0
    13dc:	1b be       	out	0x3b, r1	; 59
    13de:	2f 93       	push	r18
    13e0:	3f 93       	push	r19
    13e2:	4f 93       	push	r20
    13e4:	5f 93       	push	r21
    13e6:	6f 93       	push	r22
    13e8:	7f 93       	push	r23
    13ea:	8f 93       	push	r24
    13ec:	9f 93       	push	r25
    13ee:	af 93       	push	r26
    13f0:	bf 93       	push	r27
    13f2:	ef 93       	push	r30
    13f4:	ff 93       	push	r31
    13f6:	e0 91 76 20 	lds	r30, 0x2076	; 0x802076 <tc_tcf0_ccb_callback>
    13fa:	f0 91 77 20 	lds	r31, 0x2077	; 0x802077 <tc_tcf0_ccb_callback+0x1>
    13fe:	30 97       	sbiw	r30, 0x00	; 0
    1400:	09 f0       	breq	.+2      	; 0x1404 <__vector_111+0x42>
    1402:	19 95       	eicall
    1404:	ff 91       	pop	r31
    1406:	ef 91       	pop	r30
    1408:	bf 91       	pop	r27
    140a:	af 91       	pop	r26
    140c:	9f 91       	pop	r25
    140e:	8f 91       	pop	r24
    1410:	7f 91       	pop	r23
    1412:	6f 91       	pop	r22
    1414:	5f 91       	pop	r21
    1416:	4f 91       	pop	r20
    1418:	3f 91       	pop	r19
    141a:	2f 91       	pop	r18
    141c:	0f 90       	pop	r0
    141e:	0b be       	out	0x3b, r0	; 59
    1420:	0f 90       	pop	r0
    1422:	09 be       	out	0x39, r0	; 57
    1424:	0f 90       	pop	r0
    1426:	08 be       	out	0x38, r0	; 56
    1428:	0f 90       	pop	r0
    142a:	0f be       	out	0x3f, r0	; 63
    142c:	0f 90       	pop	r0
    142e:	1f 90       	pop	r1
    1430:	18 95       	reti

00001432 <__vector_112>:
    1432:	1f 92       	push	r1
    1434:	0f 92       	push	r0
    1436:	0f b6       	in	r0, 0x3f	; 63
    1438:	0f 92       	push	r0
    143a:	11 24       	eor	r1, r1
    143c:	08 b6       	in	r0, 0x38	; 56
    143e:	0f 92       	push	r0
    1440:	18 be       	out	0x38, r1	; 56
    1442:	09 b6       	in	r0, 0x39	; 57
    1444:	0f 92       	push	r0
    1446:	19 be       	out	0x39, r1	; 57
    1448:	0b b6       	in	r0, 0x3b	; 59
    144a:	0f 92       	push	r0
    144c:	1b be       	out	0x3b, r1	; 59
    144e:	2f 93       	push	r18
    1450:	3f 93       	push	r19
    1452:	4f 93       	push	r20
    1454:	5f 93       	push	r21
    1456:	6f 93       	push	r22
    1458:	7f 93       	push	r23
    145a:	8f 93       	push	r24
    145c:	9f 93       	push	r25
    145e:	af 93       	push	r26
    1460:	bf 93       	push	r27
    1462:	ef 93       	push	r30
    1464:	ff 93       	push	r31
    1466:	e0 91 74 20 	lds	r30, 0x2074	; 0x802074 <tc_tcf0_ccc_callback>
    146a:	f0 91 75 20 	lds	r31, 0x2075	; 0x802075 <tc_tcf0_ccc_callback+0x1>
    146e:	30 97       	sbiw	r30, 0x00	; 0
    1470:	09 f0       	breq	.+2      	; 0x1474 <__vector_112+0x42>
    1472:	19 95       	eicall
    1474:	ff 91       	pop	r31
    1476:	ef 91       	pop	r30
    1478:	bf 91       	pop	r27
    147a:	af 91       	pop	r26
    147c:	9f 91       	pop	r25
    147e:	8f 91       	pop	r24
    1480:	7f 91       	pop	r23
    1482:	6f 91       	pop	r22
    1484:	5f 91       	pop	r21
    1486:	4f 91       	pop	r20
    1488:	3f 91       	pop	r19
    148a:	2f 91       	pop	r18
    148c:	0f 90       	pop	r0
    148e:	0b be       	out	0x3b, r0	; 59
    1490:	0f 90       	pop	r0
    1492:	09 be       	out	0x39, r0	; 57
    1494:	0f 90       	pop	r0
    1496:	08 be       	out	0x38, r0	; 56
    1498:	0f 90       	pop	r0
    149a:	0f be       	out	0x3f, r0	; 63
    149c:	0f 90       	pop	r0
    149e:	1f 90       	pop	r1
    14a0:	18 95       	reti

000014a2 <__vector_113>:
    14a2:	1f 92       	push	r1
    14a4:	0f 92       	push	r0
    14a6:	0f b6       	in	r0, 0x3f	; 63
    14a8:	0f 92       	push	r0
    14aa:	11 24       	eor	r1, r1
    14ac:	08 b6       	in	r0, 0x38	; 56
    14ae:	0f 92       	push	r0
    14b0:	18 be       	out	0x38, r1	; 56
    14b2:	09 b6       	in	r0, 0x39	; 57
    14b4:	0f 92       	push	r0
    14b6:	19 be       	out	0x39, r1	; 57
    14b8:	0b b6       	in	r0, 0x3b	; 59
    14ba:	0f 92       	push	r0
    14bc:	1b be       	out	0x3b, r1	; 59
    14be:	2f 93       	push	r18
    14c0:	3f 93       	push	r19
    14c2:	4f 93       	push	r20
    14c4:	5f 93       	push	r21
    14c6:	6f 93       	push	r22
    14c8:	7f 93       	push	r23
    14ca:	8f 93       	push	r24
    14cc:	9f 93       	push	r25
    14ce:	af 93       	push	r26
    14d0:	bf 93       	push	r27
    14d2:	ef 93       	push	r30
    14d4:	ff 93       	push	r31
    14d6:	e0 91 72 20 	lds	r30, 0x2072	; 0x802072 <tc_tcf0_ccd_callback>
    14da:	f0 91 73 20 	lds	r31, 0x2073	; 0x802073 <tc_tcf0_ccd_callback+0x1>
    14de:	30 97       	sbiw	r30, 0x00	; 0
    14e0:	09 f0       	breq	.+2      	; 0x14e4 <__vector_113+0x42>
    14e2:	19 95       	eicall
    14e4:	ff 91       	pop	r31
    14e6:	ef 91       	pop	r30
    14e8:	bf 91       	pop	r27
    14ea:	af 91       	pop	r26
    14ec:	9f 91       	pop	r25
    14ee:	8f 91       	pop	r24
    14f0:	7f 91       	pop	r23
    14f2:	6f 91       	pop	r22
    14f4:	5f 91       	pop	r21
    14f6:	4f 91       	pop	r20
    14f8:	3f 91       	pop	r19
    14fa:	2f 91       	pop	r18
    14fc:	0f 90       	pop	r0
    14fe:	0b be       	out	0x3b, r0	; 59
    1500:	0f 90       	pop	r0
    1502:	09 be       	out	0x39, r0	; 57
    1504:	0f 90       	pop	r0
    1506:	08 be       	out	0x38, r0	; 56
    1508:	0f 90       	pop	r0
    150a:	0f be       	out	0x3f, r0	; 63
    150c:	0f 90       	pop	r0
    150e:	1f 90       	pop	r1
    1510:	18 95       	reti

00001512 <__vector_114>:
    1512:	1f 92       	push	r1
    1514:	0f 92       	push	r0
    1516:	0f b6       	in	r0, 0x3f	; 63
    1518:	0f 92       	push	r0
    151a:	11 24       	eor	r1, r1
    151c:	08 b6       	in	r0, 0x38	; 56
    151e:	0f 92       	push	r0
    1520:	18 be       	out	0x38, r1	; 56
    1522:	09 b6       	in	r0, 0x39	; 57
    1524:	0f 92       	push	r0
    1526:	19 be       	out	0x39, r1	; 57
    1528:	0b b6       	in	r0, 0x3b	; 59
    152a:	0f 92       	push	r0
    152c:	1b be       	out	0x3b, r1	; 59
    152e:	2f 93       	push	r18
    1530:	3f 93       	push	r19
    1532:	4f 93       	push	r20
    1534:	5f 93       	push	r21
    1536:	6f 93       	push	r22
    1538:	7f 93       	push	r23
    153a:	8f 93       	push	r24
    153c:	9f 93       	push	r25
    153e:	af 93       	push	r26
    1540:	bf 93       	push	r27
    1542:	ef 93       	push	r30
    1544:	ff 93       	push	r31
    1546:	e0 91 70 20 	lds	r30, 0x2070	; 0x802070 <tc_tcf1_ovf_callback>
    154a:	f0 91 71 20 	lds	r31, 0x2071	; 0x802071 <tc_tcf1_ovf_callback+0x1>
    154e:	30 97       	sbiw	r30, 0x00	; 0
    1550:	09 f0       	breq	.+2      	; 0x1554 <__vector_114+0x42>
    1552:	19 95       	eicall
    1554:	ff 91       	pop	r31
    1556:	ef 91       	pop	r30
    1558:	bf 91       	pop	r27
    155a:	af 91       	pop	r26
    155c:	9f 91       	pop	r25
    155e:	8f 91       	pop	r24
    1560:	7f 91       	pop	r23
    1562:	6f 91       	pop	r22
    1564:	5f 91       	pop	r21
    1566:	4f 91       	pop	r20
    1568:	3f 91       	pop	r19
    156a:	2f 91       	pop	r18
    156c:	0f 90       	pop	r0
    156e:	0b be       	out	0x3b, r0	; 59
    1570:	0f 90       	pop	r0
    1572:	09 be       	out	0x39, r0	; 57
    1574:	0f 90       	pop	r0
    1576:	08 be       	out	0x38, r0	; 56
    1578:	0f 90       	pop	r0
    157a:	0f be       	out	0x3f, r0	; 63
    157c:	0f 90       	pop	r0
    157e:	1f 90       	pop	r1
    1580:	18 95       	reti

00001582 <__vector_115>:
    1582:	1f 92       	push	r1
    1584:	0f 92       	push	r0
    1586:	0f b6       	in	r0, 0x3f	; 63
    1588:	0f 92       	push	r0
    158a:	11 24       	eor	r1, r1
    158c:	08 b6       	in	r0, 0x38	; 56
    158e:	0f 92       	push	r0
    1590:	18 be       	out	0x38, r1	; 56
    1592:	09 b6       	in	r0, 0x39	; 57
    1594:	0f 92       	push	r0
    1596:	19 be       	out	0x39, r1	; 57
    1598:	0b b6       	in	r0, 0x3b	; 59
    159a:	0f 92       	push	r0
    159c:	1b be       	out	0x3b, r1	; 59
    159e:	2f 93       	push	r18
    15a0:	3f 93       	push	r19
    15a2:	4f 93       	push	r20
    15a4:	5f 93       	push	r21
    15a6:	6f 93       	push	r22
    15a8:	7f 93       	push	r23
    15aa:	8f 93       	push	r24
    15ac:	9f 93       	push	r25
    15ae:	af 93       	push	r26
    15b0:	bf 93       	push	r27
    15b2:	ef 93       	push	r30
    15b4:	ff 93       	push	r31
    15b6:	e0 91 6e 20 	lds	r30, 0x206E	; 0x80206e <tc_tcf1_err_callback>
    15ba:	f0 91 6f 20 	lds	r31, 0x206F	; 0x80206f <tc_tcf1_err_callback+0x1>
    15be:	30 97       	sbiw	r30, 0x00	; 0
    15c0:	09 f0       	breq	.+2      	; 0x15c4 <__vector_115+0x42>
    15c2:	19 95       	eicall
    15c4:	ff 91       	pop	r31
    15c6:	ef 91       	pop	r30
    15c8:	bf 91       	pop	r27
    15ca:	af 91       	pop	r26
    15cc:	9f 91       	pop	r25
    15ce:	8f 91       	pop	r24
    15d0:	7f 91       	pop	r23
    15d2:	6f 91       	pop	r22
    15d4:	5f 91       	pop	r21
    15d6:	4f 91       	pop	r20
    15d8:	3f 91       	pop	r19
    15da:	2f 91       	pop	r18
    15dc:	0f 90       	pop	r0
    15de:	0b be       	out	0x3b, r0	; 59
    15e0:	0f 90       	pop	r0
    15e2:	09 be       	out	0x39, r0	; 57
    15e4:	0f 90       	pop	r0
    15e6:	08 be       	out	0x38, r0	; 56
    15e8:	0f 90       	pop	r0
    15ea:	0f be       	out	0x3f, r0	; 63
    15ec:	0f 90       	pop	r0
    15ee:	1f 90       	pop	r1
    15f0:	18 95       	reti

000015f2 <__vector_116>:
    15f2:	1f 92       	push	r1
    15f4:	0f 92       	push	r0
    15f6:	0f b6       	in	r0, 0x3f	; 63
    15f8:	0f 92       	push	r0
    15fa:	11 24       	eor	r1, r1
    15fc:	08 b6       	in	r0, 0x38	; 56
    15fe:	0f 92       	push	r0
    1600:	18 be       	out	0x38, r1	; 56
    1602:	09 b6       	in	r0, 0x39	; 57
    1604:	0f 92       	push	r0
    1606:	19 be       	out	0x39, r1	; 57
    1608:	0b b6       	in	r0, 0x3b	; 59
    160a:	0f 92       	push	r0
    160c:	1b be       	out	0x3b, r1	; 59
    160e:	2f 93       	push	r18
    1610:	3f 93       	push	r19
    1612:	4f 93       	push	r20
    1614:	5f 93       	push	r21
    1616:	6f 93       	push	r22
    1618:	7f 93       	push	r23
    161a:	8f 93       	push	r24
    161c:	9f 93       	push	r25
    161e:	af 93       	push	r26
    1620:	bf 93       	push	r27
    1622:	ef 93       	push	r30
    1624:	ff 93       	push	r31
    1626:	e0 91 6c 20 	lds	r30, 0x206C	; 0x80206c <tc_tcf1_cca_callback>
    162a:	f0 91 6d 20 	lds	r31, 0x206D	; 0x80206d <tc_tcf1_cca_callback+0x1>
    162e:	30 97       	sbiw	r30, 0x00	; 0
    1630:	09 f0       	breq	.+2      	; 0x1634 <__vector_116+0x42>
    1632:	19 95       	eicall
    1634:	ff 91       	pop	r31
    1636:	ef 91       	pop	r30
    1638:	bf 91       	pop	r27
    163a:	af 91       	pop	r26
    163c:	9f 91       	pop	r25
    163e:	8f 91       	pop	r24
    1640:	7f 91       	pop	r23
    1642:	6f 91       	pop	r22
    1644:	5f 91       	pop	r21
    1646:	4f 91       	pop	r20
    1648:	3f 91       	pop	r19
    164a:	2f 91       	pop	r18
    164c:	0f 90       	pop	r0
    164e:	0b be       	out	0x3b, r0	; 59
    1650:	0f 90       	pop	r0
    1652:	09 be       	out	0x39, r0	; 57
    1654:	0f 90       	pop	r0
    1656:	08 be       	out	0x38, r0	; 56
    1658:	0f 90       	pop	r0
    165a:	0f be       	out	0x3f, r0	; 63
    165c:	0f 90       	pop	r0
    165e:	1f 90       	pop	r1
    1660:	18 95       	reti

00001662 <__vector_117>:
    1662:	1f 92       	push	r1
    1664:	0f 92       	push	r0
    1666:	0f b6       	in	r0, 0x3f	; 63
    1668:	0f 92       	push	r0
    166a:	11 24       	eor	r1, r1
    166c:	08 b6       	in	r0, 0x38	; 56
    166e:	0f 92       	push	r0
    1670:	18 be       	out	0x38, r1	; 56
    1672:	09 b6       	in	r0, 0x39	; 57
    1674:	0f 92       	push	r0
    1676:	19 be       	out	0x39, r1	; 57
    1678:	0b b6       	in	r0, 0x3b	; 59
    167a:	0f 92       	push	r0
    167c:	1b be       	out	0x3b, r1	; 59
    167e:	2f 93       	push	r18
    1680:	3f 93       	push	r19
    1682:	4f 93       	push	r20
    1684:	5f 93       	push	r21
    1686:	6f 93       	push	r22
    1688:	7f 93       	push	r23
    168a:	8f 93       	push	r24
    168c:	9f 93       	push	r25
    168e:	af 93       	push	r26
    1690:	bf 93       	push	r27
    1692:	ef 93       	push	r30
    1694:	ff 93       	push	r31
    1696:	e0 91 6a 20 	lds	r30, 0x206A	; 0x80206a <tc_tcf1_ccb_callback>
    169a:	f0 91 6b 20 	lds	r31, 0x206B	; 0x80206b <tc_tcf1_ccb_callback+0x1>
    169e:	30 97       	sbiw	r30, 0x00	; 0
    16a0:	09 f0       	breq	.+2      	; 0x16a4 <__vector_117+0x42>
    16a2:	19 95       	eicall
    16a4:	ff 91       	pop	r31
    16a6:	ef 91       	pop	r30
    16a8:	bf 91       	pop	r27
    16aa:	af 91       	pop	r26
    16ac:	9f 91       	pop	r25
    16ae:	8f 91       	pop	r24
    16b0:	7f 91       	pop	r23
    16b2:	6f 91       	pop	r22
    16b4:	5f 91       	pop	r21
    16b6:	4f 91       	pop	r20
    16b8:	3f 91       	pop	r19
    16ba:	2f 91       	pop	r18
    16bc:	0f 90       	pop	r0
    16be:	0b be       	out	0x3b, r0	; 59
    16c0:	0f 90       	pop	r0
    16c2:	09 be       	out	0x39, r0	; 57
    16c4:	0f 90       	pop	r0
    16c6:	08 be       	out	0x38, r0	; 56
    16c8:	0f 90       	pop	r0
    16ca:	0f be       	out	0x3f, r0	; 63
    16cc:	0f 90       	pop	r0
    16ce:	1f 90       	pop	r1
    16d0:	18 95       	reti

000016d2 <usart_putchar>:
    16d2:	fc 01       	movw	r30, r24
    16d4:	91 81       	ldd	r25, Z+1	; 0x01
    16d6:	95 ff       	sbrs	r25, 5
    16d8:	fd cf       	rjmp	.-6      	; 0x16d4 <usart_putchar+0x2>
    16da:	60 83       	st	Z, r22
    16dc:	80 e0       	ldi	r24, 0x00	; 0
    16de:	90 e0       	ldi	r25, 0x00	; 0
    16e0:	08 95       	ret

000016e2 <usart_set_baudrate>:
    16e2:	4f 92       	push	r4
    16e4:	5f 92       	push	r5
    16e6:	6f 92       	push	r6
    16e8:	7f 92       	push	r7
    16ea:	8f 92       	push	r8
    16ec:	9f 92       	push	r9
    16ee:	af 92       	push	r10
    16f0:	bf 92       	push	r11
    16f2:	ef 92       	push	r14
    16f4:	ff 92       	push	r15
    16f6:	0f 93       	push	r16
    16f8:	1f 93       	push	r17
    16fa:	cf 93       	push	r28
    16fc:	7c 01       	movw	r14, r24
    16fe:	4a 01       	movw	r8, r20
    1700:	5b 01       	movw	r10, r22
    1702:	28 01       	movw	r4, r16
    1704:	39 01       	movw	r6, r18
    1706:	fc 01       	movw	r30, r24
    1708:	84 81       	ldd	r24, Z+4	; 0x04
    170a:	82 ff       	sbrs	r24, 2
    170c:	16 c0       	rjmp	.+44     	; 0x173a <usart_set_baudrate+0x58>
    170e:	d9 01       	movw	r26, r18
    1710:	c8 01       	movw	r24, r16
    1712:	68 94       	set
    1714:	12 f8       	bld	r1, 2
    1716:	b6 95       	lsr	r27
    1718:	a7 95       	ror	r26
    171a:	97 95       	ror	r25
    171c:	87 95       	ror	r24
    171e:	16 94       	lsr	r1
    1720:	d1 f7       	brne	.-12     	; 0x1716 <usart_set_baudrate+0x34>
    1722:	b9 01       	movw	r22, r18
    1724:	a8 01       	movw	r20, r16
    1726:	03 2e       	mov	r0, r19
    1728:	36 e1       	ldi	r19, 0x16	; 22
    172a:	76 95       	lsr	r23
    172c:	67 95       	ror	r22
    172e:	57 95       	ror	r21
    1730:	47 95       	ror	r20
    1732:	3a 95       	dec	r19
    1734:	d1 f7       	brne	.-12     	; 0x172a <usart_set_baudrate+0x48>
    1736:	30 2d       	mov	r19, r0
    1738:	15 c0       	rjmp	.+42     	; 0x1764 <usart_set_baudrate+0x82>
    173a:	d9 01       	movw	r26, r18
    173c:	c8 01       	movw	r24, r16
    173e:	68 94       	set
    1740:	13 f8       	bld	r1, 3
    1742:	b6 95       	lsr	r27
    1744:	a7 95       	ror	r26
    1746:	97 95       	ror	r25
    1748:	87 95       	ror	r24
    174a:	16 94       	lsr	r1
    174c:	d1 f7       	brne	.-12     	; 0x1742 <usart_set_baudrate+0x60>
    174e:	b9 01       	movw	r22, r18
    1750:	a8 01       	movw	r20, r16
    1752:	03 2e       	mov	r0, r19
    1754:	37 e1       	ldi	r19, 0x17	; 23
    1756:	76 95       	lsr	r23
    1758:	67 95       	ror	r22
    175a:	57 95       	ror	r21
    175c:	47 95       	ror	r20
    175e:	3a 95       	dec	r19
    1760:	d1 f7       	brne	.-12     	; 0x1756 <usart_set_baudrate+0x74>
    1762:	30 2d       	mov	r19, r0
    1764:	88 15       	cp	r24, r8
    1766:	99 05       	cpc	r25, r9
    1768:	aa 05       	cpc	r26, r10
    176a:	bb 05       	cpc	r27, r11
    176c:	08 f4       	brcc	.+2      	; 0x1770 <usart_set_baudrate+0x8e>
    176e:	a2 c0       	rjmp	.+324    	; 0x18b4 <usart_set_baudrate+0x1d2>
    1770:	84 16       	cp	r8, r20
    1772:	95 06       	cpc	r9, r21
    1774:	a6 06       	cpc	r10, r22
    1776:	b7 06       	cpc	r11, r23
    1778:	08 f4       	brcc	.+2      	; 0x177c <usart_set_baudrate+0x9a>
    177a:	9e c0       	rjmp	.+316    	; 0x18b8 <usart_set_baudrate+0x1d6>
    177c:	f7 01       	movw	r30, r14
    177e:	84 81       	ldd	r24, Z+4	; 0x04
    1780:	82 fd       	sbrc	r24, 2
    1782:	04 c0       	rjmp	.+8      	; 0x178c <usart_set_baudrate+0xaa>
    1784:	88 0c       	add	r8, r8
    1786:	99 1c       	adc	r9, r9
    1788:	aa 1c       	adc	r10, r10
    178a:	bb 1c       	adc	r11, r11
    178c:	c3 01       	movw	r24, r6
    178e:	b2 01       	movw	r22, r4
    1790:	a5 01       	movw	r20, r10
    1792:	94 01       	movw	r18, r8
    1794:	e3 d7       	rcall	.+4038   	; 0x275c <__udivmodsi4>
    1796:	2f 3f       	cpi	r18, 0xFF	; 255
    1798:	31 05       	cpc	r19, r1
    179a:	41 05       	cpc	r20, r1
    179c:	51 05       	cpc	r21, r1
    179e:	08 f4       	brcc	.+2      	; 0x17a2 <usart_set_baudrate+0xc0>
    17a0:	8d c0       	rjmp	.+282    	; 0x18bc <usart_set_baudrate+0x1da>
    17a2:	8f ef       	ldi	r24, 0xFF	; 255
    17a4:	90 e0       	ldi	r25, 0x00	; 0
    17a6:	a0 e0       	ldi	r26, 0x00	; 0
    17a8:	b0 e0       	ldi	r27, 0x00	; 0
    17aa:	c9 ef       	ldi	r28, 0xF9	; 249
    17ac:	05 c0       	rjmp	.+10     	; 0x17b8 <usart_set_baudrate+0xd6>
    17ae:	28 17       	cp	r18, r24
    17b0:	39 07       	cpc	r19, r25
    17b2:	4a 07       	cpc	r20, r26
    17b4:	5b 07       	cpc	r21, r27
    17b6:	58 f0       	brcs	.+22     	; 0x17ce <usart_set_baudrate+0xec>
    17b8:	88 0f       	add	r24, r24
    17ba:	99 1f       	adc	r25, r25
    17bc:	aa 1f       	adc	r26, r26
    17be:	bb 1f       	adc	r27, r27
    17c0:	cd 3f       	cpi	r28, 0xFD	; 253
    17c2:	0c f4       	brge	.+2      	; 0x17c6 <usart_set_baudrate+0xe4>
    17c4:	81 60       	ori	r24, 0x01	; 1
    17c6:	cf 5f       	subi	r28, 0xFF	; 255
    17c8:	c7 30       	cpi	r28, 0x07	; 7
    17ca:	89 f7       	brne	.-30     	; 0x17ae <usart_set_baudrate+0xcc>
    17cc:	4d c0       	rjmp	.+154    	; 0x1868 <usart_set_baudrate+0x186>
    17ce:	cc 23       	and	r28, r28
    17d0:	0c f0       	brlt	.+2      	; 0x17d4 <usart_set_baudrate+0xf2>
    17d2:	4a c0       	rjmp	.+148    	; 0x1868 <usart_set_baudrate+0x186>
    17d4:	d5 01       	movw	r26, r10
    17d6:	c4 01       	movw	r24, r8
    17d8:	88 0f       	add	r24, r24
    17da:	99 1f       	adc	r25, r25
    17dc:	aa 1f       	adc	r26, r26
    17de:	bb 1f       	adc	r27, r27
    17e0:	88 0f       	add	r24, r24
    17e2:	99 1f       	adc	r25, r25
    17e4:	aa 1f       	adc	r26, r26
    17e6:	bb 1f       	adc	r27, r27
    17e8:	88 0f       	add	r24, r24
    17ea:	99 1f       	adc	r25, r25
    17ec:	aa 1f       	adc	r26, r26
    17ee:	bb 1f       	adc	r27, r27
    17f0:	48 1a       	sub	r4, r24
    17f2:	59 0a       	sbc	r5, r25
    17f4:	6a 0a       	sbc	r6, r26
    17f6:	7b 0a       	sbc	r7, r27
    17f8:	ce 3f       	cpi	r28, 0xFE	; 254
    17fa:	ec f4       	brge	.+58     	; 0x1836 <usart_set_baudrate+0x154>
    17fc:	8d ef       	ldi	r24, 0xFD	; 253
    17fe:	9f ef       	ldi	r25, 0xFF	; 255
    1800:	8c 1b       	sub	r24, r28
    1802:	91 09       	sbc	r25, r1
    1804:	c7 fd       	sbrc	r28, 7
    1806:	93 95       	inc	r25
    1808:	04 c0       	rjmp	.+8      	; 0x1812 <usart_set_baudrate+0x130>
    180a:	44 0c       	add	r4, r4
    180c:	55 1c       	adc	r5, r5
    180e:	66 1c       	adc	r6, r6
    1810:	77 1c       	adc	r7, r7
    1812:	8a 95       	dec	r24
    1814:	d2 f7       	brpl	.-12     	; 0x180a <usart_set_baudrate+0x128>
    1816:	d5 01       	movw	r26, r10
    1818:	c4 01       	movw	r24, r8
    181a:	b6 95       	lsr	r27
    181c:	a7 95       	ror	r26
    181e:	97 95       	ror	r25
    1820:	87 95       	ror	r24
    1822:	bc 01       	movw	r22, r24
    1824:	cd 01       	movw	r24, r26
    1826:	64 0d       	add	r22, r4
    1828:	75 1d       	adc	r23, r5
    182a:	86 1d       	adc	r24, r6
    182c:	97 1d       	adc	r25, r7
    182e:	a5 01       	movw	r20, r10
    1830:	94 01       	movw	r18, r8
    1832:	94 d7       	rcall	.+3880   	; 0x275c <__udivmodsi4>
    1834:	35 c0       	rjmp	.+106    	; 0x18a0 <usart_set_baudrate+0x1be>
    1836:	83 e0       	ldi	r24, 0x03	; 3
    1838:	8c 0f       	add	r24, r28
    183a:	a5 01       	movw	r20, r10
    183c:	94 01       	movw	r18, r8
    183e:	04 c0       	rjmp	.+8      	; 0x1848 <usart_set_baudrate+0x166>
    1840:	22 0f       	add	r18, r18
    1842:	33 1f       	adc	r19, r19
    1844:	44 1f       	adc	r20, r20
    1846:	55 1f       	adc	r21, r21
    1848:	8a 95       	dec	r24
    184a:	d2 f7       	brpl	.-12     	; 0x1840 <usart_set_baudrate+0x15e>
    184c:	da 01       	movw	r26, r20
    184e:	c9 01       	movw	r24, r18
    1850:	b6 95       	lsr	r27
    1852:	a7 95       	ror	r26
    1854:	97 95       	ror	r25
    1856:	87 95       	ror	r24
    1858:	bc 01       	movw	r22, r24
    185a:	cd 01       	movw	r24, r26
    185c:	64 0d       	add	r22, r4
    185e:	75 1d       	adc	r23, r5
    1860:	86 1d       	adc	r24, r6
    1862:	97 1d       	adc	r25, r7
    1864:	7b d7       	rcall	.+3830   	; 0x275c <__udivmodsi4>
    1866:	1c c0       	rjmp	.+56     	; 0x18a0 <usart_set_baudrate+0x1be>
    1868:	83 e0       	ldi	r24, 0x03	; 3
    186a:	8c 0f       	add	r24, r28
    186c:	a5 01       	movw	r20, r10
    186e:	94 01       	movw	r18, r8
    1870:	04 c0       	rjmp	.+8      	; 0x187a <usart_set_baudrate+0x198>
    1872:	22 0f       	add	r18, r18
    1874:	33 1f       	adc	r19, r19
    1876:	44 1f       	adc	r20, r20
    1878:	55 1f       	adc	r21, r21
    187a:	8a 95       	dec	r24
    187c:	d2 f7       	brpl	.-12     	; 0x1872 <usart_set_baudrate+0x190>
    187e:	da 01       	movw	r26, r20
    1880:	c9 01       	movw	r24, r18
    1882:	b6 95       	lsr	r27
    1884:	a7 95       	ror	r26
    1886:	97 95       	ror	r25
    1888:	87 95       	ror	r24
    188a:	bc 01       	movw	r22, r24
    188c:	cd 01       	movw	r24, r26
    188e:	64 0d       	add	r22, r4
    1890:	75 1d       	adc	r23, r5
    1892:	86 1d       	adc	r24, r6
    1894:	97 1d       	adc	r25, r7
    1896:	62 d7       	rcall	.+3780   	; 0x275c <__udivmodsi4>
    1898:	21 50       	subi	r18, 0x01	; 1
    189a:	31 09       	sbc	r19, r1
    189c:	41 09       	sbc	r20, r1
    189e:	51 09       	sbc	r21, r1
    18a0:	83 2f       	mov	r24, r19
    18a2:	8f 70       	andi	r24, 0x0F	; 15
    18a4:	c2 95       	swap	r28
    18a6:	c0 7f       	andi	r28, 0xF0	; 240
    18a8:	c8 2b       	or	r28, r24
    18aa:	f7 01       	movw	r30, r14
    18ac:	c7 83       	std	Z+7, r28	; 0x07
    18ae:	26 83       	std	Z+6, r18	; 0x06
    18b0:	81 e0       	ldi	r24, 0x01	; 1
    18b2:	18 c0       	rjmp	.+48     	; 0x18e4 <usart_set_baudrate+0x202>
    18b4:	80 e0       	ldi	r24, 0x00	; 0
    18b6:	16 c0       	rjmp	.+44     	; 0x18e4 <usart_set_baudrate+0x202>
    18b8:	80 e0       	ldi	r24, 0x00	; 0
    18ba:	14 c0       	rjmp	.+40     	; 0x18e4 <usart_set_baudrate+0x202>
    18bc:	d5 01       	movw	r26, r10
    18be:	c4 01       	movw	r24, r8
    18c0:	88 0f       	add	r24, r24
    18c2:	99 1f       	adc	r25, r25
    18c4:	aa 1f       	adc	r26, r26
    18c6:	bb 1f       	adc	r27, r27
    18c8:	88 0f       	add	r24, r24
    18ca:	99 1f       	adc	r25, r25
    18cc:	aa 1f       	adc	r26, r26
    18ce:	bb 1f       	adc	r27, r27
    18d0:	88 0f       	add	r24, r24
    18d2:	99 1f       	adc	r25, r25
    18d4:	aa 1f       	adc	r26, r26
    18d6:	bb 1f       	adc	r27, r27
    18d8:	48 1a       	sub	r4, r24
    18da:	59 0a       	sbc	r5, r25
    18dc:	6a 0a       	sbc	r6, r26
    18de:	7b 0a       	sbc	r7, r27
    18e0:	c9 ef       	ldi	r28, 0xF9	; 249
    18e2:	8c cf       	rjmp	.-232    	; 0x17fc <usart_set_baudrate+0x11a>
    18e4:	cf 91       	pop	r28
    18e6:	1f 91       	pop	r17
    18e8:	0f 91       	pop	r16
    18ea:	ff 90       	pop	r15
    18ec:	ef 90       	pop	r14
    18ee:	bf 90       	pop	r11
    18f0:	af 90       	pop	r10
    18f2:	9f 90       	pop	r9
    18f4:	8f 90       	pop	r8
    18f6:	7f 90       	pop	r7
    18f8:	6f 90       	pop	r6
    18fa:	5f 90       	pop	r5
    18fc:	4f 90       	pop	r4
    18fe:	08 95       	ret

00001900 <usart_init_rs232>:
    1900:	0f 93       	push	r16
    1902:	1f 93       	push	r17
    1904:	cf 93       	push	r28
    1906:	df 93       	push	r29
    1908:	ec 01       	movw	r28, r24
    190a:	8b 01       	movw	r16, r22
    190c:	00 97       	sbiw	r24, 0x00	; 0
    190e:	09 f4       	brne	.+2      	; 0x1912 <usart_init_rs232+0x12>
    1910:	36 c1       	rjmp	.+620    	; 0x1b7e <usart_init_rs232+0x27e>
    1912:	80 3c       	cpi	r24, 0xC0	; 192
    1914:	91 05       	cpc	r25, r1
    1916:	21 f4       	brne	.+8      	; 0x1920 <usart_init_rs232+0x20>
    1918:	60 e1       	ldi	r22, 0x10	; 16
    191a:	80 e0       	ldi	r24, 0x00	; 0
    191c:	87 d4       	rcall	.+2318   	; 0x222c <sysclk_enable_module>
    191e:	2f c1       	rjmp	.+606    	; 0x1b7e <usart_init_rs232+0x27e>
    1920:	c0 34       	cpi	r28, 0x40	; 64
    1922:	84 e0       	ldi	r24, 0x04	; 4
    1924:	d8 07       	cpc	r29, r24
    1926:	21 f4       	brne	.+8      	; 0x1930 <usart_init_rs232+0x30>
    1928:	68 e0       	ldi	r22, 0x08	; 8
    192a:	80 e0       	ldi	r24, 0x00	; 0
    192c:	7f d4       	rcall	.+2302   	; 0x222c <sysclk_enable_module>
    192e:	27 c1       	rjmp	.+590    	; 0x1b7e <usart_init_rs232+0x27e>
    1930:	c1 15       	cp	r28, r1
    1932:	e4 e0       	ldi	r30, 0x04	; 4
    1934:	de 07       	cpc	r29, r30
    1936:	21 f4       	brne	.+8      	; 0x1940 <usart_init_rs232+0x40>
    1938:	64 e0       	ldi	r22, 0x04	; 4
    193a:	80 e0       	ldi	r24, 0x00	; 0
    193c:	77 d4       	rcall	.+2286   	; 0x222c <sysclk_enable_module>
    193e:	1f c1       	rjmp	.+574    	; 0x1b7e <usart_init_rs232+0x27e>
    1940:	c0 38       	cpi	r28, 0x80	; 128
    1942:	f1 e0       	ldi	r31, 0x01	; 1
    1944:	df 07       	cpc	r29, r31
    1946:	21 f4       	brne	.+8      	; 0x1950 <usart_init_rs232+0x50>
    1948:	62 e0       	ldi	r22, 0x02	; 2
    194a:	80 e0       	ldi	r24, 0x00	; 0
    194c:	6f d4       	rcall	.+2270   	; 0x222c <sysclk_enable_module>
    194e:	17 c1       	rjmp	.+558    	; 0x1b7e <usart_init_rs232+0x27e>
    1950:	c1 15       	cp	r28, r1
    1952:	81 e0       	ldi	r24, 0x01	; 1
    1954:	d8 07       	cpc	r29, r24
    1956:	21 f4       	brne	.+8      	; 0x1960 <usart_init_rs232+0x60>
    1958:	61 e0       	ldi	r22, 0x01	; 1
    195a:	80 e0       	ldi	r24, 0x00	; 0
    195c:	67 d4       	rcall	.+2254   	; 0x222c <sysclk_enable_module>
    195e:	0f c1       	rjmp	.+542    	; 0x1b7e <usart_init_rs232+0x27e>
    1960:	c0 38       	cpi	r28, 0x80	; 128
    1962:	e3 e0       	ldi	r30, 0x03	; 3
    1964:	de 07       	cpc	r29, r30
    1966:	21 f4       	brne	.+8      	; 0x1970 <usart_init_rs232+0x70>
    1968:	61 e0       	ldi	r22, 0x01	; 1
    196a:	81 e0       	ldi	r24, 0x01	; 1
    196c:	5f d4       	rcall	.+2238   	; 0x222c <sysclk_enable_module>
    196e:	07 c1       	rjmp	.+526    	; 0x1b7e <usart_init_rs232+0x27e>
    1970:	c0 39       	cpi	r28, 0x90	; 144
    1972:	f3 e0       	ldi	r31, 0x03	; 3
    1974:	df 07       	cpc	r29, r31
    1976:	21 f4       	brne	.+8      	; 0x1980 <usart_init_rs232+0x80>
    1978:	61 e0       	ldi	r22, 0x01	; 1
    197a:	82 e0       	ldi	r24, 0x02	; 2
    197c:	57 d4       	rcall	.+2222   	; 0x222c <sysclk_enable_module>
    197e:	ff c0       	rjmp	.+510    	; 0x1b7e <usart_init_rs232+0x27e>
    1980:	c1 15       	cp	r28, r1
    1982:	82 e0       	ldi	r24, 0x02	; 2
    1984:	d8 07       	cpc	r29, r24
    1986:	21 f4       	brne	.+8      	; 0x1990 <usart_init_rs232+0x90>
    1988:	62 e0       	ldi	r22, 0x02	; 2
    198a:	81 e0       	ldi	r24, 0x01	; 1
    198c:	4f d4       	rcall	.+2206   	; 0x222c <sysclk_enable_module>
    198e:	f7 c0       	rjmp	.+494    	; 0x1b7e <usart_init_rs232+0x27e>
    1990:	c0 34       	cpi	r28, 0x40	; 64
    1992:	e2 e0       	ldi	r30, 0x02	; 2
    1994:	de 07       	cpc	r29, r30
    1996:	21 f4       	brne	.+8      	; 0x19a0 <usart_init_rs232+0xa0>
    1998:	62 e0       	ldi	r22, 0x02	; 2
    199a:	82 e0       	ldi	r24, 0x02	; 2
    199c:	47 d4       	rcall	.+2190   	; 0x222c <sysclk_enable_module>
    199e:	ef c0       	rjmp	.+478    	; 0x1b7e <usart_init_rs232+0x27e>
    19a0:	c1 15       	cp	r28, r1
    19a2:	f3 e0       	ldi	r31, 0x03	; 3
    19a4:	df 07       	cpc	r29, r31
    19a6:	21 f4       	brne	.+8      	; 0x19b0 <usart_init_rs232+0xb0>
    19a8:	64 e0       	ldi	r22, 0x04	; 4
    19aa:	81 e0       	ldi	r24, 0x01	; 1
    19ac:	3f d4       	rcall	.+2174   	; 0x222c <sysclk_enable_module>
    19ae:	e7 c0       	rjmp	.+462    	; 0x1b7e <usart_init_rs232+0x27e>
    19b0:	c0 32       	cpi	r28, 0x20	; 32
    19b2:	83 e0       	ldi	r24, 0x03	; 3
    19b4:	d8 07       	cpc	r29, r24
    19b6:	21 f4       	brne	.+8      	; 0x19c0 <usart_init_rs232+0xc0>
    19b8:	64 e0       	ldi	r22, 0x04	; 4
    19ba:	82 e0       	ldi	r24, 0x02	; 2
    19bc:	37 d4       	rcall	.+2158   	; 0x222c <sysclk_enable_module>
    19be:	df c0       	rjmp	.+446    	; 0x1b7e <usart_init_rs232+0x27e>
    19c0:	c1 15       	cp	r28, r1
    19c2:	e8 e0       	ldi	r30, 0x08	; 8
    19c4:	de 07       	cpc	r29, r30
    19c6:	21 f4       	brne	.+8      	; 0x19d0 <usart_init_rs232+0xd0>
    19c8:	61 e0       	ldi	r22, 0x01	; 1
    19ca:	83 e0       	ldi	r24, 0x03	; 3
    19cc:	2f d4       	rcall	.+2142   	; 0x222c <sysclk_enable_module>
    19ce:	d7 c0       	rjmp	.+430    	; 0x1b7e <usart_init_rs232+0x27e>
    19d0:	c1 15       	cp	r28, r1
    19d2:	f9 e0       	ldi	r31, 0x09	; 9
    19d4:	df 07       	cpc	r29, r31
    19d6:	21 f4       	brne	.+8      	; 0x19e0 <usart_init_rs232+0xe0>
    19d8:	61 e0       	ldi	r22, 0x01	; 1
    19da:	84 e0       	ldi	r24, 0x04	; 4
    19dc:	27 d4       	rcall	.+2126   	; 0x222c <sysclk_enable_module>
    19de:	cf c0       	rjmp	.+414    	; 0x1b7e <usart_init_rs232+0x27e>
    19e0:	c1 15       	cp	r28, r1
    19e2:	8a e0       	ldi	r24, 0x0A	; 10
    19e4:	d8 07       	cpc	r29, r24
    19e6:	21 f4       	brne	.+8      	; 0x19f0 <usart_init_rs232+0xf0>
    19e8:	61 e0       	ldi	r22, 0x01	; 1
    19ea:	85 e0       	ldi	r24, 0x05	; 5
    19ec:	1f d4       	rcall	.+2110   	; 0x222c <sysclk_enable_module>
    19ee:	c7 c0       	rjmp	.+398    	; 0x1b7e <usart_init_rs232+0x27e>
    19f0:	c1 15       	cp	r28, r1
    19f2:	eb e0       	ldi	r30, 0x0B	; 11
    19f4:	de 07       	cpc	r29, r30
    19f6:	21 f4       	brne	.+8      	; 0x1a00 <usart_init_rs232+0x100>
    19f8:	61 e0       	ldi	r22, 0x01	; 1
    19fa:	86 e0       	ldi	r24, 0x06	; 6
    19fc:	17 d4       	rcall	.+2094   	; 0x222c <sysclk_enable_module>
    19fe:	bf c0       	rjmp	.+382    	; 0x1b7e <usart_init_rs232+0x27e>
    1a00:	c0 34       	cpi	r28, 0x40	; 64
    1a02:	f8 e0       	ldi	r31, 0x08	; 8
    1a04:	df 07       	cpc	r29, r31
    1a06:	21 f4       	brne	.+8      	; 0x1a10 <usart_init_rs232+0x110>
    1a08:	62 e0       	ldi	r22, 0x02	; 2
    1a0a:	83 e0       	ldi	r24, 0x03	; 3
    1a0c:	0f d4       	rcall	.+2078   	; 0x222c <sysclk_enable_module>
    1a0e:	b7 c0       	rjmp	.+366    	; 0x1b7e <usart_init_rs232+0x27e>
    1a10:	c0 34       	cpi	r28, 0x40	; 64
    1a12:	89 e0       	ldi	r24, 0x09	; 9
    1a14:	d8 07       	cpc	r29, r24
    1a16:	21 f4       	brne	.+8      	; 0x1a20 <usart_init_rs232+0x120>
    1a18:	62 e0       	ldi	r22, 0x02	; 2
    1a1a:	84 e0       	ldi	r24, 0x04	; 4
    1a1c:	07 d4       	rcall	.+2062   	; 0x222c <sysclk_enable_module>
    1a1e:	af c0       	rjmp	.+350    	; 0x1b7e <usart_init_rs232+0x27e>
    1a20:	c0 34       	cpi	r28, 0x40	; 64
    1a22:	ea e0       	ldi	r30, 0x0A	; 10
    1a24:	de 07       	cpc	r29, r30
    1a26:	21 f4       	brne	.+8      	; 0x1a30 <usart_init_rs232+0x130>
    1a28:	62 e0       	ldi	r22, 0x02	; 2
    1a2a:	85 e0       	ldi	r24, 0x05	; 5
    1a2c:	ff d3       	rcall	.+2046   	; 0x222c <sysclk_enable_module>
    1a2e:	a7 c0       	rjmp	.+334    	; 0x1b7e <usart_init_rs232+0x27e>
    1a30:	c0 34       	cpi	r28, 0x40	; 64
    1a32:	fb e0       	ldi	r31, 0x0B	; 11
    1a34:	df 07       	cpc	r29, r31
    1a36:	21 f4       	brne	.+8      	; 0x1a40 <usart_init_rs232+0x140>
    1a38:	62 e0       	ldi	r22, 0x02	; 2
    1a3a:	86 e0       	ldi	r24, 0x06	; 6
    1a3c:	f7 d3       	rcall	.+2030   	; 0x222c <sysclk_enable_module>
    1a3e:	9f c0       	rjmp	.+318    	; 0x1b7e <usart_init_rs232+0x27e>
    1a40:	c0 39       	cpi	r28, 0x90	; 144
    1a42:	88 e0       	ldi	r24, 0x08	; 8
    1a44:	d8 07       	cpc	r29, r24
    1a46:	21 f4       	brne	.+8      	; 0x1a50 <usart_init_rs232+0x150>
    1a48:	64 e0       	ldi	r22, 0x04	; 4
    1a4a:	83 e0       	ldi	r24, 0x03	; 3
    1a4c:	ef d3       	rcall	.+2014   	; 0x222c <sysclk_enable_module>
    1a4e:	97 c0       	rjmp	.+302    	; 0x1b7e <usart_init_rs232+0x27e>
    1a50:	c0 39       	cpi	r28, 0x90	; 144
    1a52:	e9 e0       	ldi	r30, 0x09	; 9
    1a54:	de 07       	cpc	r29, r30
    1a56:	21 f4       	brne	.+8      	; 0x1a60 <usart_init_rs232+0x160>
    1a58:	64 e0       	ldi	r22, 0x04	; 4
    1a5a:	84 e0       	ldi	r24, 0x04	; 4
    1a5c:	e7 d3       	rcall	.+1998   	; 0x222c <sysclk_enable_module>
    1a5e:	8f c0       	rjmp	.+286    	; 0x1b7e <usart_init_rs232+0x27e>
    1a60:	c0 39       	cpi	r28, 0x90	; 144
    1a62:	fa e0       	ldi	r31, 0x0A	; 10
    1a64:	df 07       	cpc	r29, r31
    1a66:	21 f4       	brne	.+8      	; 0x1a70 <usart_init_rs232+0x170>
    1a68:	64 e0       	ldi	r22, 0x04	; 4
    1a6a:	85 e0       	ldi	r24, 0x05	; 5
    1a6c:	df d3       	rcall	.+1982   	; 0x222c <sysclk_enable_module>
    1a6e:	87 c0       	rjmp	.+270    	; 0x1b7e <usart_init_rs232+0x27e>
    1a70:	c0 39       	cpi	r28, 0x90	; 144
    1a72:	8b e0       	ldi	r24, 0x0B	; 11
    1a74:	d8 07       	cpc	r29, r24
    1a76:	21 f4       	brne	.+8      	; 0x1a80 <usart_init_rs232+0x180>
    1a78:	64 e0       	ldi	r22, 0x04	; 4
    1a7a:	86 e0       	ldi	r24, 0x06	; 6
    1a7c:	d7 d3       	rcall	.+1966   	; 0x222c <sysclk_enable_module>
    1a7e:	7f c0       	rjmp	.+254    	; 0x1b7e <usart_init_rs232+0x27e>
    1a80:	c0 3c       	cpi	r28, 0xC0	; 192
    1a82:	e8 e0       	ldi	r30, 0x08	; 8
    1a84:	de 07       	cpc	r29, r30
    1a86:	21 f4       	brne	.+8      	; 0x1a90 <usart_init_rs232+0x190>
    1a88:	68 e0       	ldi	r22, 0x08	; 8
    1a8a:	83 e0       	ldi	r24, 0x03	; 3
    1a8c:	cf d3       	rcall	.+1950   	; 0x222c <sysclk_enable_module>
    1a8e:	77 c0       	rjmp	.+238    	; 0x1b7e <usart_init_rs232+0x27e>
    1a90:	c0 3c       	cpi	r28, 0xC0	; 192
    1a92:	f9 e0       	ldi	r31, 0x09	; 9
    1a94:	df 07       	cpc	r29, r31
    1a96:	21 f4       	brne	.+8      	; 0x1aa0 <usart_init_rs232+0x1a0>
    1a98:	68 e0       	ldi	r22, 0x08	; 8
    1a9a:	84 e0       	ldi	r24, 0x04	; 4
    1a9c:	c7 d3       	rcall	.+1934   	; 0x222c <sysclk_enable_module>
    1a9e:	6f c0       	rjmp	.+222    	; 0x1b7e <usart_init_rs232+0x27e>
    1aa0:	c0 3c       	cpi	r28, 0xC0	; 192
    1aa2:	8a e0       	ldi	r24, 0x0A	; 10
    1aa4:	d8 07       	cpc	r29, r24
    1aa6:	21 f4       	brne	.+8      	; 0x1ab0 <usart_init_rs232+0x1b0>
    1aa8:	68 e0       	ldi	r22, 0x08	; 8
    1aaa:	85 e0       	ldi	r24, 0x05	; 5
    1aac:	bf d3       	rcall	.+1918   	; 0x222c <sysclk_enable_module>
    1aae:	67 c0       	rjmp	.+206    	; 0x1b7e <usart_init_rs232+0x27e>
    1ab0:	c0 3c       	cpi	r28, 0xC0	; 192
    1ab2:	eb e0       	ldi	r30, 0x0B	; 11
    1ab4:	de 07       	cpc	r29, r30
    1ab6:	21 f4       	brne	.+8      	; 0x1ac0 <usart_init_rs232+0x1c0>
    1ab8:	68 e0       	ldi	r22, 0x08	; 8
    1aba:	86 e0       	ldi	r24, 0x06	; 6
    1abc:	b7 d3       	rcall	.+1902   	; 0x222c <sysclk_enable_module>
    1abe:	5f c0       	rjmp	.+190    	; 0x1b7e <usart_init_rs232+0x27e>
    1ac0:	c0 3a       	cpi	r28, 0xA0	; 160
    1ac2:	f8 e0       	ldi	r31, 0x08	; 8
    1ac4:	df 07       	cpc	r29, r31
    1ac6:	21 f4       	brne	.+8      	; 0x1ad0 <usart_init_rs232+0x1d0>
    1ac8:	60 e1       	ldi	r22, 0x10	; 16
    1aca:	83 e0       	ldi	r24, 0x03	; 3
    1acc:	af d3       	rcall	.+1886   	; 0x222c <sysclk_enable_module>
    1ace:	57 c0       	rjmp	.+174    	; 0x1b7e <usart_init_rs232+0x27e>
    1ad0:	c0 3a       	cpi	r28, 0xA0	; 160
    1ad2:	89 e0       	ldi	r24, 0x09	; 9
    1ad4:	d8 07       	cpc	r29, r24
    1ad6:	21 f4       	brne	.+8      	; 0x1ae0 <usart_init_rs232+0x1e0>
    1ad8:	60 e1       	ldi	r22, 0x10	; 16
    1ada:	84 e0       	ldi	r24, 0x04	; 4
    1adc:	a7 d3       	rcall	.+1870   	; 0x222c <sysclk_enable_module>
    1ade:	4f c0       	rjmp	.+158    	; 0x1b7e <usart_init_rs232+0x27e>
    1ae0:	c0 3a       	cpi	r28, 0xA0	; 160
    1ae2:	ea e0       	ldi	r30, 0x0A	; 10
    1ae4:	de 07       	cpc	r29, r30
    1ae6:	21 f4       	brne	.+8      	; 0x1af0 <usart_init_rs232+0x1f0>
    1ae8:	60 e1       	ldi	r22, 0x10	; 16
    1aea:	85 e0       	ldi	r24, 0x05	; 5
    1aec:	9f d3       	rcall	.+1854   	; 0x222c <sysclk_enable_module>
    1aee:	47 c0       	rjmp	.+142    	; 0x1b7e <usart_init_rs232+0x27e>
    1af0:	c0 3a       	cpi	r28, 0xA0	; 160
    1af2:	fb e0       	ldi	r31, 0x0B	; 11
    1af4:	df 07       	cpc	r29, r31
    1af6:	21 f4       	brne	.+8      	; 0x1b00 <usart_init_rs232+0x200>
    1af8:	60 e1       	ldi	r22, 0x10	; 16
    1afa:	86 e0       	ldi	r24, 0x06	; 6
    1afc:	97 d3       	rcall	.+1838   	; 0x222c <sysclk_enable_module>
    1afe:	3f c0       	rjmp	.+126    	; 0x1b7e <usart_init_rs232+0x27e>
    1b00:	c0 3b       	cpi	r28, 0xB0	; 176
    1b02:	88 e0       	ldi	r24, 0x08	; 8
    1b04:	d8 07       	cpc	r29, r24
    1b06:	21 f4       	brne	.+8      	; 0x1b10 <usart_init_rs232+0x210>
    1b08:	60 e2       	ldi	r22, 0x20	; 32
    1b0a:	83 e0       	ldi	r24, 0x03	; 3
    1b0c:	8f d3       	rcall	.+1822   	; 0x222c <sysclk_enable_module>
    1b0e:	37 c0       	rjmp	.+110    	; 0x1b7e <usart_init_rs232+0x27e>
    1b10:	c0 3b       	cpi	r28, 0xB0	; 176
    1b12:	e9 e0       	ldi	r30, 0x09	; 9
    1b14:	de 07       	cpc	r29, r30
    1b16:	21 f4       	brne	.+8      	; 0x1b20 <usart_init_rs232+0x220>
    1b18:	60 e2       	ldi	r22, 0x20	; 32
    1b1a:	84 e0       	ldi	r24, 0x04	; 4
    1b1c:	87 d3       	rcall	.+1806   	; 0x222c <sysclk_enable_module>
    1b1e:	2f c0       	rjmp	.+94     	; 0x1b7e <usart_init_rs232+0x27e>
    1b20:	c0 3b       	cpi	r28, 0xB0	; 176
    1b22:	fa e0       	ldi	r31, 0x0A	; 10
    1b24:	df 07       	cpc	r29, r31
    1b26:	21 f4       	brne	.+8      	; 0x1b30 <usart_init_rs232+0x230>
    1b28:	60 e2       	ldi	r22, 0x20	; 32
    1b2a:	85 e0       	ldi	r24, 0x05	; 5
    1b2c:	7f d3       	rcall	.+1790   	; 0x222c <sysclk_enable_module>
    1b2e:	27 c0       	rjmp	.+78     	; 0x1b7e <usart_init_rs232+0x27e>
    1b30:	c0 3b       	cpi	r28, 0xB0	; 176
    1b32:	8b e0       	ldi	r24, 0x0B	; 11
    1b34:	d8 07       	cpc	r29, r24
    1b36:	21 f4       	brne	.+8      	; 0x1b40 <usart_init_rs232+0x240>
    1b38:	60 e2       	ldi	r22, 0x20	; 32
    1b3a:	86 e0       	ldi	r24, 0x06	; 6
    1b3c:	77 d3       	rcall	.+1774   	; 0x222c <sysclk_enable_module>
    1b3e:	1f c0       	rjmp	.+62     	; 0x1b7e <usart_init_rs232+0x27e>
    1b40:	c0 38       	cpi	r28, 0x80	; 128
    1b42:	e4 e0       	ldi	r30, 0x04	; 4
    1b44:	de 07       	cpc	r29, r30
    1b46:	21 f4       	brne	.+8      	; 0x1b50 <usart_init_rs232+0x250>
    1b48:	60 e4       	ldi	r22, 0x40	; 64
    1b4a:	83 e0       	ldi	r24, 0x03	; 3
    1b4c:	6f d3       	rcall	.+1758   	; 0x222c <sysclk_enable_module>
    1b4e:	17 c0       	rjmp	.+46     	; 0x1b7e <usart_init_rs232+0x27e>
    1b50:	c0 39       	cpi	r28, 0x90	; 144
    1b52:	f4 e0       	ldi	r31, 0x04	; 4
    1b54:	df 07       	cpc	r29, r31
    1b56:	21 f4       	brne	.+8      	; 0x1b60 <usart_init_rs232+0x260>
    1b58:	60 e4       	ldi	r22, 0x40	; 64
    1b5a:	84 e0       	ldi	r24, 0x04	; 4
    1b5c:	67 d3       	rcall	.+1742   	; 0x222c <sysclk_enable_module>
    1b5e:	0f c0       	rjmp	.+30     	; 0x1b7e <usart_init_rs232+0x27e>
    1b60:	c0 3a       	cpi	r28, 0xA0	; 160
    1b62:	84 e0       	ldi	r24, 0x04	; 4
    1b64:	d8 07       	cpc	r29, r24
    1b66:	21 f4       	brne	.+8      	; 0x1b70 <usart_init_rs232+0x270>
    1b68:	60 e4       	ldi	r22, 0x40	; 64
    1b6a:	85 e0       	ldi	r24, 0x05	; 5
    1b6c:	5f d3       	rcall	.+1726   	; 0x222c <sysclk_enable_module>
    1b6e:	07 c0       	rjmp	.+14     	; 0x1b7e <usart_init_rs232+0x27e>
    1b70:	c0 3b       	cpi	r28, 0xB0	; 176
    1b72:	e4 e0       	ldi	r30, 0x04	; 4
    1b74:	de 07       	cpc	r29, r30
    1b76:	19 f4       	brne	.+6      	; 0x1b7e <usart_init_rs232+0x27e>
    1b78:	60 e4       	ldi	r22, 0x40	; 64
    1b7a:	86 e0       	ldi	r24, 0x06	; 6
    1b7c:	57 d3       	rcall	.+1710   	; 0x222c <sysclk_enable_module>
    1b7e:	8d 81       	ldd	r24, Y+5	; 0x05
    1b80:	8f 73       	andi	r24, 0x3F	; 63
    1b82:	8d 83       	std	Y+5, r24	; 0x05
    1b84:	f8 01       	movw	r30, r16
    1b86:	95 81       	ldd	r25, Z+5	; 0x05
    1b88:	84 81       	ldd	r24, Z+4	; 0x04
    1b8a:	89 2b       	or	r24, r25
    1b8c:	96 81       	ldd	r25, Z+6	; 0x06
    1b8e:	91 11       	cpse	r25, r1
    1b90:	98 e0       	ldi	r25, 0x08	; 8
    1b92:	89 2b       	or	r24, r25
    1b94:	8d 83       	std	Y+5, r24	; 0x05
    1b96:	f8 01       	movw	r30, r16
    1b98:	40 81       	ld	r20, Z
    1b9a:	51 81       	ldd	r21, Z+1	; 0x01
    1b9c:	62 81       	ldd	r22, Z+2	; 0x02
    1b9e:	73 81       	ldd	r23, Z+3	; 0x03
    1ba0:	00 e8       	ldi	r16, 0x80	; 128
    1ba2:	14 e8       	ldi	r17, 0x84	; 132
    1ba4:	2e e1       	ldi	r18, 0x1E	; 30
    1ba6:	30 e0       	ldi	r19, 0x00	; 0
    1ba8:	ce 01       	movw	r24, r28
    1baa:	9b dd       	rcall	.-1226   	; 0x16e2 <usart_set_baudrate>
    1bac:	9c 81       	ldd	r25, Y+4	; 0x04
    1bae:	98 60       	ori	r25, 0x08	; 8
    1bb0:	9c 83       	std	Y+4, r25	; 0x04
    1bb2:	9c 81       	ldd	r25, Y+4	; 0x04
    1bb4:	90 61       	ori	r25, 0x10	; 16
    1bb6:	9c 83       	std	Y+4, r25	; 0x04
    1bb8:	df 91       	pop	r29
    1bba:	cf 91       	pop	r28
    1bbc:	1f 91       	pop	r17
    1bbe:	0f 91       	pop	r16
    1bc0:	08 95       	ret

00001bc2 <__vector_71>:
    1bc2:	1f 92       	push	r1
    1bc4:	0f 92       	push	r0
    1bc6:	0f b6       	in	r0, 0x3f	; 63
    1bc8:	0f 92       	push	r0
    1bca:	11 24       	eor	r1, r1
    1bcc:	08 b6       	in	r0, 0x38	; 56
    1bce:	0f 92       	push	r0
    1bd0:	18 be       	out	0x38, r1	; 56
    1bd2:	09 b6       	in	r0, 0x39	; 57
    1bd4:	0f 92       	push	r0
    1bd6:	19 be       	out	0x39, r1	; 57
    1bd8:	0b b6       	in	r0, 0x3b	; 59
    1bda:	0f 92       	push	r0
    1bdc:	1b be       	out	0x3b, r1	; 59
    1bde:	2f 93       	push	r18
    1be0:	3f 93       	push	r19
    1be2:	4f 93       	push	r20
    1be4:	5f 93       	push	r21
    1be6:	6f 93       	push	r22
    1be8:	7f 93       	push	r23
    1bea:	8f 93       	push	r24
    1bec:	9f 93       	push	r25
    1bee:	af 93       	push	r26
    1bf0:	bf 93       	push	r27
    1bf2:	ef 93       	push	r30
    1bf4:	ff 93       	push	r31
    1bf6:	40 91 24 02 	lds	r20, 0x0224	; 0x800224 <__TEXT_REGION_LENGTH__+0x700224>
    1bfa:	50 91 25 02 	lds	r21, 0x0225	; 0x800225 <__TEXT_REGION_LENGTH__+0x700225>
    1bfe:	e0 91 c1 20 	lds	r30, 0x20C1	; 0x8020c1 <adca_callback>
    1c02:	f0 91 c2 20 	lds	r31, 0x20C2	; 0x8020c2 <adca_callback+0x1>
    1c06:	61 e0       	ldi	r22, 0x01	; 1
    1c08:	80 e0       	ldi	r24, 0x00	; 0
    1c0a:	92 e0       	ldi	r25, 0x02	; 2
    1c0c:	19 95       	eicall
    1c0e:	ff 91       	pop	r31
    1c10:	ef 91       	pop	r30
    1c12:	bf 91       	pop	r27
    1c14:	af 91       	pop	r26
    1c16:	9f 91       	pop	r25
    1c18:	8f 91       	pop	r24
    1c1a:	7f 91       	pop	r23
    1c1c:	6f 91       	pop	r22
    1c1e:	5f 91       	pop	r21
    1c20:	4f 91       	pop	r20
    1c22:	3f 91       	pop	r19
    1c24:	2f 91       	pop	r18
    1c26:	0f 90       	pop	r0
    1c28:	0b be       	out	0x3b, r0	; 59
    1c2a:	0f 90       	pop	r0
    1c2c:	09 be       	out	0x39, r0	; 57
    1c2e:	0f 90       	pop	r0
    1c30:	08 be       	out	0x38, r0	; 56
    1c32:	0f 90       	pop	r0
    1c34:	0f be       	out	0x3f, r0	; 63
    1c36:	0f 90       	pop	r0
    1c38:	1f 90       	pop	r1
    1c3a:	18 95       	reti

00001c3c <__vector_72>:
    1c3c:	1f 92       	push	r1
    1c3e:	0f 92       	push	r0
    1c40:	0f b6       	in	r0, 0x3f	; 63
    1c42:	0f 92       	push	r0
    1c44:	11 24       	eor	r1, r1
    1c46:	08 b6       	in	r0, 0x38	; 56
    1c48:	0f 92       	push	r0
    1c4a:	18 be       	out	0x38, r1	; 56
    1c4c:	09 b6       	in	r0, 0x39	; 57
    1c4e:	0f 92       	push	r0
    1c50:	19 be       	out	0x39, r1	; 57
    1c52:	0b b6       	in	r0, 0x3b	; 59
    1c54:	0f 92       	push	r0
    1c56:	1b be       	out	0x3b, r1	; 59
    1c58:	2f 93       	push	r18
    1c5a:	3f 93       	push	r19
    1c5c:	4f 93       	push	r20
    1c5e:	5f 93       	push	r21
    1c60:	6f 93       	push	r22
    1c62:	7f 93       	push	r23
    1c64:	8f 93       	push	r24
    1c66:	9f 93       	push	r25
    1c68:	af 93       	push	r26
    1c6a:	bf 93       	push	r27
    1c6c:	ef 93       	push	r30
    1c6e:	ff 93       	push	r31
    1c70:	40 91 2c 02 	lds	r20, 0x022C	; 0x80022c <__TEXT_REGION_LENGTH__+0x70022c>
    1c74:	50 91 2d 02 	lds	r21, 0x022D	; 0x80022d <__TEXT_REGION_LENGTH__+0x70022d>
    1c78:	e0 91 c1 20 	lds	r30, 0x20C1	; 0x8020c1 <adca_callback>
    1c7c:	f0 91 c2 20 	lds	r31, 0x20C2	; 0x8020c2 <adca_callback+0x1>
    1c80:	62 e0       	ldi	r22, 0x02	; 2
    1c82:	80 e0       	ldi	r24, 0x00	; 0
    1c84:	92 e0       	ldi	r25, 0x02	; 2
    1c86:	19 95       	eicall
    1c88:	ff 91       	pop	r31
    1c8a:	ef 91       	pop	r30
    1c8c:	bf 91       	pop	r27
    1c8e:	af 91       	pop	r26
    1c90:	9f 91       	pop	r25
    1c92:	8f 91       	pop	r24
    1c94:	7f 91       	pop	r23
    1c96:	6f 91       	pop	r22
    1c98:	5f 91       	pop	r21
    1c9a:	4f 91       	pop	r20
    1c9c:	3f 91       	pop	r19
    1c9e:	2f 91       	pop	r18
    1ca0:	0f 90       	pop	r0
    1ca2:	0b be       	out	0x3b, r0	; 59
    1ca4:	0f 90       	pop	r0
    1ca6:	09 be       	out	0x39, r0	; 57
    1ca8:	0f 90       	pop	r0
    1caa:	08 be       	out	0x38, r0	; 56
    1cac:	0f 90       	pop	r0
    1cae:	0f be       	out	0x3f, r0	; 63
    1cb0:	0f 90       	pop	r0
    1cb2:	1f 90       	pop	r1
    1cb4:	18 95       	reti

00001cb6 <__vector_73>:
    1cb6:	1f 92       	push	r1
    1cb8:	0f 92       	push	r0
    1cba:	0f b6       	in	r0, 0x3f	; 63
    1cbc:	0f 92       	push	r0
    1cbe:	11 24       	eor	r1, r1
    1cc0:	08 b6       	in	r0, 0x38	; 56
    1cc2:	0f 92       	push	r0
    1cc4:	18 be       	out	0x38, r1	; 56
    1cc6:	09 b6       	in	r0, 0x39	; 57
    1cc8:	0f 92       	push	r0
    1cca:	19 be       	out	0x39, r1	; 57
    1ccc:	0b b6       	in	r0, 0x3b	; 59
    1cce:	0f 92       	push	r0
    1cd0:	1b be       	out	0x3b, r1	; 59
    1cd2:	2f 93       	push	r18
    1cd4:	3f 93       	push	r19
    1cd6:	4f 93       	push	r20
    1cd8:	5f 93       	push	r21
    1cda:	6f 93       	push	r22
    1cdc:	7f 93       	push	r23
    1cde:	8f 93       	push	r24
    1ce0:	9f 93       	push	r25
    1ce2:	af 93       	push	r26
    1ce4:	bf 93       	push	r27
    1ce6:	ef 93       	push	r30
    1ce8:	ff 93       	push	r31
    1cea:	40 91 34 02 	lds	r20, 0x0234	; 0x800234 <__TEXT_REGION_LENGTH__+0x700234>
    1cee:	50 91 35 02 	lds	r21, 0x0235	; 0x800235 <__TEXT_REGION_LENGTH__+0x700235>
    1cf2:	e0 91 c1 20 	lds	r30, 0x20C1	; 0x8020c1 <adca_callback>
    1cf6:	f0 91 c2 20 	lds	r31, 0x20C2	; 0x8020c2 <adca_callback+0x1>
    1cfa:	64 e0       	ldi	r22, 0x04	; 4
    1cfc:	80 e0       	ldi	r24, 0x00	; 0
    1cfe:	92 e0       	ldi	r25, 0x02	; 2
    1d00:	19 95       	eicall
    1d02:	ff 91       	pop	r31
    1d04:	ef 91       	pop	r30
    1d06:	bf 91       	pop	r27
    1d08:	af 91       	pop	r26
    1d0a:	9f 91       	pop	r25
    1d0c:	8f 91       	pop	r24
    1d0e:	7f 91       	pop	r23
    1d10:	6f 91       	pop	r22
    1d12:	5f 91       	pop	r21
    1d14:	4f 91       	pop	r20
    1d16:	3f 91       	pop	r19
    1d18:	2f 91       	pop	r18
    1d1a:	0f 90       	pop	r0
    1d1c:	0b be       	out	0x3b, r0	; 59
    1d1e:	0f 90       	pop	r0
    1d20:	09 be       	out	0x39, r0	; 57
    1d22:	0f 90       	pop	r0
    1d24:	08 be       	out	0x38, r0	; 56
    1d26:	0f 90       	pop	r0
    1d28:	0f be       	out	0x3f, r0	; 63
    1d2a:	0f 90       	pop	r0
    1d2c:	1f 90       	pop	r1
    1d2e:	18 95       	reti

00001d30 <__vector_74>:
    1d30:	1f 92       	push	r1
    1d32:	0f 92       	push	r0
    1d34:	0f b6       	in	r0, 0x3f	; 63
    1d36:	0f 92       	push	r0
    1d38:	11 24       	eor	r1, r1
    1d3a:	08 b6       	in	r0, 0x38	; 56
    1d3c:	0f 92       	push	r0
    1d3e:	18 be       	out	0x38, r1	; 56
    1d40:	09 b6       	in	r0, 0x39	; 57
    1d42:	0f 92       	push	r0
    1d44:	19 be       	out	0x39, r1	; 57
    1d46:	0b b6       	in	r0, 0x3b	; 59
    1d48:	0f 92       	push	r0
    1d4a:	1b be       	out	0x3b, r1	; 59
    1d4c:	2f 93       	push	r18
    1d4e:	3f 93       	push	r19
    1d50:	4f 93       	push	r20
    1d52:	5f 93       	push	r21
    1d54:	6f 93       	push	r22
    1d56:	7f 93       	push	r23
    1d58:	8f 93       	push	r24
    1d5a:	9f 93       	push	r25
    1d5c:	af 93       	push	r26
    1d5e:	bf 93       	push	r27
    1d60:	ef 93       	push	r30
    1d62:	ff 93       	push	r31
    1d64:	40 91 3c 02 	lds	r20, 0x023C	; 0x80023c <__TEXT_REGION_LENGTH__+0x70023c>
    1d68:	50 91 3d 02 	lds	r21, 0x023D	; 0x80023d <__TEXT_REGION_LENGTH__+0x70023d>
    1d6c:	e0 91 c1 20 	lds	r30, 0x20C1	; 0x8020c1 <adca_callback>
    1d70:	f0 91 c2 20 	lds	r31, 0x20C2	; 0x8020c2 <adca_callback+0x1>
    1d74:	68 e0       	ldi	r22, 0x08	; 8
    1d76:	80 e0       	ldi	r24, 0x00	; 0
    1d78:	92 e0       	ldi	r25, 0x02	; 2
    1d7a:	19 95       	eicall
    1d7c:	ff 91       	pop	r31
    1d7e:	ef 91       	pop	r30
    1d80:	bf 91       	pop	r27
    1d82:	af 91       	pop	r26
    1d84:	9f 91       	pop	r25
    1d86:	8f 91       	pop	r24
    1d88:	7f 91       	pop	r23
    1d8a:	6f 91       	pop	r22
    1d8c:	5f 91       	pop	r21
    1d8e:	4f 91       	pop	r20
    1d90:	3f 91       	pop	r19
    1d92:	2f 91       	pop	r18
    1d94:	0f 90       	pop	r0
    1d96:	0b be       	out	0x3b, r0	; 59
    1d98:	0f 90       	pop	r0
    1d9a:	09 be       	out	0x39, r0	; 57
    1d9c:	0f 90       	pop	r0
    1d9e:	08 be       	out	0x38, r0	; 56
    1da0:	0f 90       	pop	r0
    1da2:	0f be       	out	0x3f, r0	; 63
    1da4:	0f 90       	pop	r0
    1da6:	1f 90       	pop	r1
    1da8:	18 95       	reti

00001daa <__vector_39>:
    1daa:	1f 92       	push	r1
    1dac:	0f 92       	push	r0
    1dae:	0f b6       	in	r0, 0x3f	; 63
    1db0:	0f 92       	push	r0
    1db2:	11 24       	eor	r1, r1
    1db4:	08 b6       	in	r0, 0x38	; 56
    1db6:	0f 92       	push	r0
    1db8:	18 be       	out	0x38, r1	; 56
    1dba:	09 b6       	in	r0, 0x39	; 57
    1dbc:	0f 92       	push	r0
    1dbe:	19 be       	out	0x39, r1	; 57
    1dc0:	0b b6       	in	r0, 0x3b	; 59
    1dc2:	0f 92       	push	r0
    1dc4:	1b be       	out	0x3b, r1	; 59
    1dc6:	2f 93       	push	r18
    1dc8:	3f 93       	push	r19
    1dca:	4f 93       	push	r20
    1dcc:	5f 93       	push	r21
    1dce:	6f 93       	push	r22
    1dd0:	7f 93       	push	r23
    1dd2:	8f 93       	push	r24
    1dd4:	9f 93       	push	r25
    1dd6:	af 93       	push	r26
    1dd8:	bf 93       	push	r27
    1dda:	ef 93       	push	r30
    1ddc:	ff 93       	push	r31
    1dde:	40 91 64 02 	lds	r20, 0x0264	; 0x800264 <__TEXT_REGION_LENGTH__+0x700264>
    1de2:	50 91 65 02 	lds	r21, 0x0265	; 0x800265 <__TEXT_REGION_LENGTH__+0x700265>
    1de6:	e0 91 bf 20 	lds	r30, 0x20BF	; 0x8020bf <adcb_callback>
    1dea:	f0 91 c0 20 	lds	r31, 0x20C0	; 0x8020c0 <adcb_callback+0x1>
    1dee:	61 e0       	ldi	r22, 0x01	; 1
    1df0:	80 e4       	ldi	r24, 0x40	; 64
    1df2:	92 e0       	ldi	r25, 0x02	; 2
    1df4:	19 95       	eicall
    1df6:	ff 91       	pop	r31
    1df8:	ef 91       	pop	r30
    1dfa:	bf 91       	pop	r27
    1dfc:	af 91       	pop	r26
    1dfe:	9f 91       	pop	r25
    1e00:	8f 91       	pop	r24
    1e02:	7f 91       	pop	r23
    1e04:	6f 91       	pop	r22
    1e06:	5f 91       	pop	r21
    1e08:	4f 91       	pop	r20
    1e0a:	3f 91       	pop	r19
    1e0c:	2f 91       	pop	r18
    1e0e:	0f 90       	pop	r0
    1e10:	0b be       	out	0x3b, r0	; 59
    1e12:	0f 90       	pop	r0
    1e14:	09 be       	out	0x39, r0	; 57
    1e16:	0f 90       	pop	r0
    1e18:	08 be       	out	0x38, r0	; 56
    1e1a:	0f 90       	pop	r0
    1e1c:	0f be       	out	0x3f, r0	; 63
    1e1e:	0f 90       	pop	r0
    1e20:	1f 90       	pop	r1
    1e22:	18 95       	reti

00001e24 <__vector_40>:
    1e24:	1f 92       	push	r1
    1e26:	0f 92       	push	r0
    1e28:	0f b6       	in	r0, 0x3f	; 63
    1e2a:	0f 92       	push	r0
    1e2c:	11 24       	eor	r1, r1
    1e2e:	08 b6       	in	r0, 0x38	; 56
    1e30:	0f 92       	push	r0
    1e32:	18 be       	out	0x38, r1	; 56
    1e34:	09 b6       	in	r0, 0x39	; 57
    1e36:	0f 92       	push	r0
    1e38:	19 be       	out	0x39, r1	; 57
    1e3a:	0b b6       	in	r0, 0x3b	; 59
    1e3c:	0f 92       	push	r0
    1e3e:	1b be       	out	0x3b, r1	; 59
    1e40:	2f 93       	push	r18
    1e42:	3f 93       	push	r19
    1e44:	4f 93       	push	r20
    1e46:	5f 93       	push	r21
    1e48:	6f 93       	push	r22
    1e4a:	7f 93       	push	r23
    1e4c:	8f 93       	push	r24
    1e4e:	9f 93       	push	r25
    1e50:	af 93       	push	r26
    1e52:	bf 93       	push	r27
    1e54:	ef 93       	push	r30
    1e56:	ff 93       	push	r31
    1e58:	40 91 6c 02 	lds	r20, 0x026C	; 0x80026c <__TEXT_REGION_LENGTH__+0x70026c>
    1e5c:	50 91 6d 02 	lds	r21, 0x026D	; 0x80026d <__TEXT_REGION_LENGTH__+0x70026d>
    1e60:	e0 91 bf 20 	lds	r30, 0x20BF	; 0x8020bf <adcb_callback>
    1e64:	f0 91 c0 20 	lds	r31, 0x20C0	; 0x8020c0 <adcb_callback+0x1>
    1e68:	62 e0       	ldi	r22, 0x02	; 2
    1e6a:	80 e4       	ldi	r24, 0x40	; 64
    1e6c:	92 e0       	ldi	r25, 0x02	; 2
    1e6e:	19 95       	eicall
    1e70:	ff 91       	pop	r31
    1e72:	ef 91       	pop	r30
    1e74:	bf 91       	pop	r27
    1e76:	af 91       	pop	r26
    1e78:	9f 91       	pop	r25
    1e7a:	8f 91       	pop	r24
    1e7c:	7f 91       	pop	r23
    1e7e:	6f 91       	pop	r22
    1e80:	5f 91       	pop	r21
    1e82:	4f 91       	pop	r20
    1e84:	3f 91       	pop	r19
    1e86:	2f 91       	pop	r18
    1e88:	0f 90       	pop	r0
    1e8a:	0b be       	out	0x3b, r0	; 59
    1e8c:	0f 90       	pop	r0
    1e8e:	09 be       	out	0x39, r0	; 57
    1e90:	0f 90       	pop	r0
    1e92:	08 be       	out	0x38, r0	; 56
    1e94:	0f 90       	pop	r0
    1e96:	0f be       	out	0x3f, r0	; 63
    1e98:	0f 90       	pop	r0
    1e9a:	1f 90       	pop	r1
    1e9c:	18 95       	reti

00001e9e <__vector_41>:
    1e9e:	1f 92       	push	r1
    1ea0:	0f 92       	push	r0
    1ea2:	0f b6       	in	r0, 0x3f	; 63
    1ea4:	0f 92       	push	r0
    1ea6:	11 24       	eor	r1, r1
    1ea8:	08 b6       	in	r0, 0x38	; 56
    1eaa:	0f 92       	push	r0
    1eac:	18 be       	out	0x38, r1	; 56
    1eae:	09 b6       	in	r0, 0x39	; 57
    1eb0:	0f 92       	push	r0
    1eb2:	19 be       	out	0x39, r1	; 57
    1eb4:	0b b6       	in	r0, 0x3b	; 59
    1eb6:	0f 92       	push	r0
    1eb8:	1b be       	out	0x3b, r1	; 59
    1eba:	2f 93       	push	r18
    1ebc:	3f 93       	push	r19
    1ebe:	4f 93       	push	r20
    1ec0:	5f 93       	push	r21
    1ec2:	6f 93       	push	r22
    1ec4:	7f 93       	push	r23
    1ec6:	8f 93       	push	r24
    1ec8:	9f 93       	push	r25
    1eca:	af 93       	push	r26
    1ecc:	bf 93       	push	r27
    1ece:	ef 93       	push	r30
    1ed0:	ff 93       	push	r31
    1ed2:	40 91 74 02 	lds	r20, 0x0274	; 0x800274 <__TEXT_REGION_LENGTH__+0x700274>
    1ed6:	50 91 75 02 	lds	r21, 0x0275	; 0x800275 <__TEXT_REGION_LENGTH__+0x700275>
    1eda:	e0 91 bf 20 	lds	r30, 0x20BF	; 0x8020bf <adcb_callback>
    1ede:	f0 91 c0 20 	lds	r31, 0x20C0	; 0x8020c0 <adcb_callback+0x1>
    1ee2:	64 e0       	ldi	r22, 0x04	; 4
    1ee4:	80 e4       	ldi	r24, 0x40	; 64
    1ee6:	92 e0       	ldi	r25, 0x02	; 2
    1ee8:	19 95       	eicall
    1eea:	ff 91       	pop	r31
    1eec:	ef 91       	pop	r30
    1eee:	bf 91       	pop	r27
    1ef0:	af 91       	pop	r26
    1ef2:	9f 91       	pop	r25
    1ef4:	8f 91       	pop	r24
    1ef6:	7f 91       	pop	r23
    1ef8:	6f 91       	pop	r22
    1efa:	5f 91       	pop	r21
    1efc:	4f 91       	pop	r20
    1efe:	3f 91       	pop	r19
    1f00:	2f 91       	pop	r18
    1f02:	0f 90       	pop	r0
    1f04:	0b be       	out	0x3b, r0	; 59
    1f06:	0f 90       	pop	r0
    1f08:	09 be       	out	0x39, r0	; 57
    1f0a:	0f 90       	pop	r0
    1f0c:	08 be       	out	0x38, r0	; 56
    1f0e:	0f 90       	pop	r0
    1f10:	0f be       	out	0x3f, r0	; 63
    1f12:	0f 90       	pop	r0
    1f14:	1f 90       	pop	r1
    1f16:	18 95       	reti

00001f18 <__vector_42>:
    1f18:	1f 92       	push	r1
    1f1a:	0f 92       	push	r0
    1f1c:	0f b6       	in	r0, 0x3f	; 63
    1f1e:	0f 92       	push	r0
    1f20:	11 24       	eor	r1, r1
    1f22:	08 b6       	in	r0, 0x38	; 56
    1f24:	0f 92       	push	r0
    1f26:	18 be       	out	0x38, r1	; 56
    1f28:	09 b6       	in	r0, 0x39	; 57
    1f2a:	0f 92       	push	r0
    1f2c:	19 be       	out	0x39, r1	; 57
    1f2e:	0b b6       	in	r0, 0x3b	; 59
    1f30:	0f 92       	push	r0
    1f32:	1b be       	out	0x3b, r1	; 59
    1f34:	2f 93       	push	r18
    1f36:	3f 93       	push	r19
    1f38:	4f 93       	push	r20
    1f3a:	5f 93       	push	r21
    1f3c:	6f 93       	push	r22
    1f3e:	7f 93       	push	r23
    1f40:	8f 93       	push	r24
    1f42:	9f 93       	push	r25
    1f44:	af 93       	push	r26
    1f46:	bf 93       	push	r27
    1f48:	ef 93       	push	r30
    1f4a:	ff 93       	push	r31
    1f4c:	40 91 7c 02 	lds	r20, 0x027C	; 0x80027c <__TEXT_REGION_LENGTH__+0x70027c>
    1f50:	50 91 7d 02 	lds	r21, 0x027D	; 0x80027d <__TEXT_REGION_LENGTH__+0x70027d>
    1f54:	e0 91 bf 20 	lds	r30, 0x20BF	; 0x8020bf <adcb_callback>
    1f58:	f0 91 c0 20 	lds	r31, 0x20C0	; 0x8020c0 <adcb_callback+0x1>
    1f5c:	68 e0       	ldi	r22, 0x08	; 8
    1f5e:	80 e4       	ldi	r24, 0x40	; 64
    1f60:	92 e0       	ldi	r25, 0x02	; 2
    1f62:	19 95       	eicall
    1f64:	ff 91       	pop	r31
    1f66:	ef 91       	pop	r30
    1f68:	bf 91       	pop	r27
    1f6a:	af 91       	pop	r26
    1f6c:	9f 91       	pop	r25
    1f6e:	8f 91       	pop	r24
    1f70:	7f 91       	pop	r23
    1f72:	6f 91       	pop	r22
    1f74:	5f 91       	pop	r21
    1f76:	4f 91       	pop	r20
    1f78:	3f 91       	pop	r19
    1f7a:	2f 91       	pop	r18
    1f7c:	0f 90       	pop	r0
    1f7e:	0b be       	out	0x3b, r0	; 59
    1f80:	0f 90       	pop	r0
    1f82:	09 be       	out	0x39, r0	; 57
    1f84:	0f 90       	pop	r0
    1f86:	08 be       	out	0x38, r0	; 56
    1f88:	0f 90       	pop	r0
    1f8a:	0f be       	out	0x3f, r0	; 63
    1f8c:	0f 90       	pop	r0
    1f8e:	1f 90       	pop	r1
    1f90:	18 95       	reti

00001f92 <adc_write_configuration>:
    1f92:	bf 92       	push	r11
    1f94:	cf 92       	push	r12
    1f96:	df 92       	push	r13
    1f98:	ef 92       	push	r14
    1f9a:	ff 92       	push	r15
    1f9c:	0f 93       	push	r16
    1f9e:	1f 93       	push	r17
    1fa0:	cf 93       	push	r28
    1fa2:	df 93       	push	r29
    1fa4:	1f 92       	push	r1
    1fa6:	cd b7       	in	r28, 0x3d	; 61
    1fa8:	de b7       	in	r29, 0x3e	; 62
    1faa:	8c 01       	movw	r16, r24
    1fac:	7b 01       	movw	r14, r22
    1fae:	81 15       	cp	r24, r1
    1fb0:	22 e0       	ldi	r18, 0x02	; 2
    1fb2:	92 07       	cpc	r25, r18
    1fb4:	71 f4       	brne	.+28     	; 0x1fd2 <adc_write_configuration+0x40>
    1fb6:	61 e2       	ldi	r22, 0x21	; 33
    1fb8:	70 e0       	ldi	r23, 0x00	; 0
    1fba:	82 e0       	ldi	r24, 0x02	; 2
    1fbc:	62 d1       	rcall	.+708    	; 0x2282 <nvm_read_byte>
    1fbe:	c8 2e       	mov	r12, r24
    1fc0:	d1 2c       	mov	r13, r1
    1fc2:	60 e2       	ldi	r22, 0x20	; 32
    1fc4:	70 e0       	ldi	r23, 0x00	; 0
    1fc6:	82 e0       	ldi	r24, 0x02	; 2
    1fc8:	5c d1       	rcall	.+696    	; 0x2282 <nvm_read_byte>
    1fca:	dc 2c       	mov	r13, r12
    1fcc:	cc 24       	eor	r12, r12
    1fce:	c8 2a       	or	r12, r24
    1fd0:	10 c0       	rjmp	.+32     	; 0x1ff2 <adc_write_configuration+0x60>
    1fd2:	80 34       	cpi	r24, 0x40	; 64
    1fd4:	92 40       	sbci	r25, 0x02	; 2
    1fd6:	d1 f5       	brne	.+116    	; 0x204c <adc_write_configuration+0xba>
    1fd8:	65 e2       	ldi	r22, 0x25	; 37
    1fda:	70 e0       	ldi	r23, 0x00	; 0
    1fdc:	82 e0       	ldi	r24, 0x02	; 2
    1fde:	51 d1       	rcall	.+674    	; 0x2282 <nvm_read_byte>
    1fe0:	c8 2e       	mov	r12, r24
    1fe2:	d1 2c       	mov	r13, r1
    1fe4:	64 e2       	ldi	r22, 0x24	; 36
    1fe6:	70 e0       	ldi	r23, 0x00	; 0
    1fe8:	82 e0       	ldi	r24, 0x02	; 2
    1fea:	4b d1       	rcall	.+662    	; 0x2282 <nvm_read_byte>
    1fec:	dc 2c       	mov	r13, r12
    1fee:	cc 24       	eor	r12, r12
    1ff0:	c8 2a       	or	r12, r24
    1ff2:	8f b7       	in	r24, 0x3f	; 63
    1ff4:	89 83       	std	Y+1, r24	; 0x01
    1ff6:	f8 94       	cli
    1ff8:	b9 80       	ldd	r11, Y+1	; 0x01
    1ffa:	c8 01       	movw	r24, r16
    1ffc:	0e 94 41 01 	call	0x282	; 0x282 <adc_enable_clock>
    2000:	f8 01       	movw	r30, r16
    2002:	80 81       	ld	r24, Z
    2004:	92 e0       	ldi	r25, 0x02	; 2
    2006:	90 83       	st	Z, r25
    2008:	c4 86       	std	Z+12, r12	; 0x0c
    200a:	d5 86       	std	Z+13, r13	; 0x0d
    200c:	f7 01       	movw	r30, r14
    200e:	25 81       	ldd	r18, Z+5	; 0x05
    2010:	36 81       	ldd	r19, Z+6	; 0x06
    2012:	f8 01       	movw	r30, r16
    2014:	20 8f       	std	Z+24, r18	; 0x18
    2016:	31 8f       	std	Z+25, r19	; 0x19
    2018:	f7 01       	movw	r30, r14
    201a:	92 81       	ldd	r25, Z+2	; 0x02
    201c:	f8 01       	movw	r30, r16
    201e:	92 83       	std	Z+2, r25	; 0x02
    2020:	f7 01       	movw	r30, r14
    2022:	94 81       	ldd	r25, Z+4	; 0x04
    2024:	f8 01       	movw	r30, r16
    2026:	94 83       	std	Z+4, r25	; 0x04
    2028:	f7 01       	movw	r30, r14
    202a:	93 81       	ldd	r25, Z+3	; 0x03
    202c:	f8 01       	movw	r30, r16
    202e:	93 83       	std	Z+3, r25	; 0x03
    2030:	f7 01       	movw	r30, r14
    2032:	91 81       	ldd	r25, Z+1	; 0x01
    2034:	f8 01       	movw	r30, r16
    2036:	91 83       	std	Z+1, r25	; 0x01
    2038:	81 70       	andi	r24, 0x01	; 1
    203a:	f7 01       	movw	r30, r14
    203c:	90 81       	ld	r25, Z
    203e:	89 2b       	or	r24, r25
    2040:	f8 01       	movw	r30, r16
    2042:	80 83       	st	Z, r24
    2044:	c8 01       	movw	r24, r16
    2046:	0e 94 62 01 	call	0x2c4	; 0x2c4 <adc_disable_clock>
    204a:	bf be       	out	0x3f, r11	; 63
    204c:	0f 90       	pop	r0
    204e:	df 91       	pop	r29
    2050:	cf 91       	pop	r28
    2052:	1f 91       	pop	r17
    2054:	0f 91       	pop	r16
    2056:	ff 90       	pop	r15
    2058:	ef 90       	pop	r14
    205a:	df 90       	pop	r13
    205c:	cf 90       	pop	r12
    205e:	bf 90       	pop	r11
    2060:	08 95       	ret

00002062 <adc_read_configuration>:
    2062:	df 92       	push	r13
    2064:	ef 92       	push	r14
    2066:	ff 92       	push	r15
    2068:	0f 93       	push	r16
    206a:	1f 93       	push	r17
    206c:	cf 93       	push	r28
    206e:	df 93       	push	r29
    2070:	1f 92       	push	r1
    2072:	cd b7       	in	r28, 0x3d	; 61
    2074:	de b7       	in	r29, 0x3e	; 62
    2076:	8c 01       	movw	r16, r24
    2078:	7b 01       	movw	r14, r22
    207a:	8f b7       	in	r24, 0x3f	; 63
    207c:	89 83       	std	Y+1, r24	; 0x01
    207e:	f8 94       	cli
    2080:	d9 80       	ldd	r13, Y+1	; 0x01
    2082:	c8 01       	movw	r24, r16
    2084:	0e 94 41 01 	call	0x282	; 0x282 <adc_enable_clock>
    2088:	f8 01       	movw	r30, r16
    208a:	80 81       	ld	r24, Z
    208c:	80 7c       	andi	r24, 0xC0	; 192
    208e:	f7 01       	movw	r30, r14
    2090:	80 83       	st	Z, r24
    2092:	f8 01       	movw	r30, r16
    2094:	80 8d       	ldd	r24, Z+24	; 0x18
    2096:	91 8d       	ldd	r25, Z+25	; 0x19
    2098:	f7 01       	movw	r30, r14
    209a:	85 83       	std	Z+5, r24	; 0x05
    209c:	96 83       	std	Z+6, r25	; 0x06
    209e:	f8 01       	movw	r30, r16
    20a0:	82 81       	ldd	r24, Z+2	; 0x02
    20a2:	f7 01       	movw	r30, r14
    20a4:	82 83       	std	Z+2, r24	; 0x02
    20a6:	f8 01       	movw	r30, r16
    20a8:	84 81       	ldd	r24, Z+4	; 0x04
    20aa:	f7 01       	movw	r30, r14
    20ac:	84 83       	std	Z+4, r24	; 0x04
    20ae:	f8 01       	movw	r30, r16
    20b0:	83 81       	ldd	r24, Z+3	; 0x03
    20b2:	f7 01       	movw	r30, r14
    20b4:	83 83       	std	Z+3, r24	; 0x03
    20b6:	f8 01       	movw	r30, r16
    20b8:	81 81       	ldd	r24, Z+1	; 0x01
    20ba:	f7 01       	movw	r30, r14
    20bc:	81 83       	std	Z+1, r24	; 0x01
    20be:	c8 01       	movw	r24, r16
    20c0:	0e 94 62 01 	call	0x2c4	; 0x2c4 <adc_disable_clock>
    20c4:	df be       	out	0x3f, r13	; 63
    20c6:	0f 90       	pop	r0
    20c8:	df 91       	pop	r29
    20ca:	cf 91       	pop	r28
    20cc:	1f 91       	pop	r17
    20ce:	0f 91       	pop	r16
    20d0:	ff 90       	pop	r15
    20d2:	ef 90       	pop	r14
    20d4:	df 90       	pop	r13
    20d6:	08 95       	ret

000020d8 <adcch_write_configuration>:
    20d8:	af 92       	push	r10
    20da:	bf 92       	push	r11
    20dc:	cf 92       	push	r12
    20de:	df 92       	push	r13
    20e0:	ef 92       	push	r14
    20e2:	ff 92       	push	r15
    20e4:	0f 93       	push	r16
    20e6:	1f 93       	push	r17
    20e8:	cf 93       	push	r28
    20ea:	df 93       	push	r29
    20ec:	1f 92       	push	r1
    20ee:	cd b7       	in	r28, 0x3d	; 61
    20f0:	de b7       	in	r29, 0x3e	; 62
    20f2:	6c 01       	movw	r12, r24
    20f4:	b6 2e       	mov	r11, r22
    20f6:	7a 01       	movw	r14, r20
    20f8:	86 2f       	mov	r24, r22
    20fa:	83 70       	andi	r24, 0x03	; 3
    20fc:	29 f4       	brne	.+10     	; 0x2108 <adcch_write_configuration+0x30>
    20fe:	96 2f       	mov	r25, r22
    2100:	96 95       	lsr	r25
    2102:	96 95       	lsr	r25
    2104:	82 e0       	ldi	r24, 0x02	; 2
    2106:	02 c0       	rjmp	.+4      	; 0x210c <adcch_write_configuration+0x34>
    2108:	96 2f       	mov	r25, r22
    210a:	80 e0       	ldi	r24, 0x00	; 0
    210c:	90 ff       	sbrs	r25, 0
    210e:	8f 5f       	subi	r24, 0xFF	; 255
    2110:	86 01       	movw	r16, r12
    2112:	00 5e       	subi	r16, 0xE0	; 224
    2114:	1f 4f       	sbci	r17, 0xFF	; 255
    2116:	98 e0       	ldi	r25, 0x08	; 8
    2118:	89 9f       	mul	r24, r25
    211a:	00 0d       	add	r16, r0
    211c:	11 1d       	adc	r17, r1
    211e:	11 24       	eor	r1, r1
    2120:	8f b7       	in	r24, 0x3f	; 63
    2122:	89 83       	std	Y+1, r24	; 0x01
    2124:	f8 94       	cli
    2126:	a9 80       	ldd	r10, Y+1	; 0x01
    2128:	c6 01       	movw	r24, r12
    212a:	0e 94 41 01 	call	0x282	; 0x282 <adc_enable_clock>
    212e:	f7 01       	movw	r30, r14
    2130:	80 81       	ld	r24, Z
    2132:	f8 01       	movw	r30, r16
    2134:	80 83       	st	Z, r24
    2136:	f7 01       	movw	r30, r14
    2138:	82 81       	ldd	r24, Z+2	; 0x02
    213a:	f8 01       	movw	r30, r16
    213c:	82 83       	std	Z+2, r24	; 0x02
    213e:	f7 01       	movw	r30, r14
    2140:	81 81       	ldd	r24, Z+1	; 0x01
    2142:	f8 01       	movw	r30, r16
    2144:	81 83       	std	Z+1, r24	; 0x01
    2146:	b0 fe       	sbrs	r11, 0
    2148:	04 c0       	rjmp	.+8      	; 0x2152 <adcch_write_configuration+0x7a>
    214a:	f7 01       	movw	r30, r14
    214c:	83 81       	ldd	r24, Z+3	; 0x03
    214e:	f8 01       	movw	r30, r16
    2150:	86 83       	std	Z+6, r24	; 0x06
    2152:	c6 01       	movw	r24, r12
    2154:	0e 94 62 01 	call	0x2c4	; 0x2c4 <adc_disable_clock>
    2158:	af be       	out	0x3f, r10	; 63
    215a:	0f 90       	pop	r0
    215c:	df 91       	pop	r29
    215e:	cf 91       	pop	r28
    2160:	1f 91       	pop	r17
    2162:	0f 91       	pop	r16
    2164:	ff 90       	pop	r15
    2166:	ef 90       	pop	r14
    2168:	df 90       	pop	r13
    216a:	cf 90       	pop	r12
    216c:	bf 90       	pop	r11
    216e:	af 90       	pop	r10
    2170:	08 95       	ret

00002172 <adcch_read_configuration>:
    2172:	af 92       	push	r10
    2174:	bf 92       	push	r11
    2176:	cf 92       	push	r12
    2178:	df 92       	push	r13
    217a:	ef 92       	push	r14
    217c:	ff 92       	push	r15
    217e:	0f 93       	push	r16
    2180:	1f 93       	push	r17
    2182:	cf 93       	push	r28
    2184:	df 93       	push	r29
    2186:	1f 92       	push	r1
    2188:	cd b7       	in	r28, 0x3d	; 61
    218a:	de b7       	in	r29, 0x3e	; 62
    218c:	6c 01       	movw	r12, r24
    218e:	b6 2e       	mov	r11, r22
    2190:	7a 01       	movw	r14, r20
    2192:	86 2f       	mov	r24, r22
    2194:	83 70       	andi	r24, 0x03	; 3
    2196:	29 f4       	brne	.+10     	; 0x21a2 <adcch_read_configuration+0x30>
    2198:	96 2f       	mov	r25, r22
    219a:	96 95       	lsr	r25
    219c:	96 95       	lsr	r25
    219e:	82 e0       	ldi	r24, 0x02	; 2
    21a0:	02 c0       	rjmp	.+4      	; 0x21a6 <adcch_read_configuration+0x34>
    21a2:	96 2f       	mov	r25, r22
    21a4:	80 e0       	ldi	r24, 0x00	; 0
    21a6:	90 ff       	sbrs	r25, 0
    21a8:	8f 5f       	subi	r24, 0xFF	; 255
    21aa:	86 01       	movw	r16, r12
    21ac:	00 5e       	subi	r16, 0xE0	; 224
    21ae:	1f 4f       	sbci	r17, 0xFF	; 255
    21b0:	98 e0       	ldi	r25, 0x08	; 8
    21b2:	89 9f       	mul	r24, r25
    21b4:	00 0d       	add	r16, r0
    21b6:	11 1d       	adc	r17, r1
    21b8:	11 24       	eor	r1, r1
    21ba:	8f b7       	in	r24, 0x3f	; 63
    21bc:	89 83       	std	Y+1, r24	; 0x01
    21be:	f8 94       	cli
    21c0:	a9 80       	ldd	r10, Y+1	; 0x01
    21c2:	c6 01       	movw	r24, r12
    21c4:	0e 94 41 01 	call	0x282	; 0x282 <adc_enable_clock>
    21c8:	f8 01       	movw	r30, r16
    21ca:	80 81       	ld	r24, Z
    21cc:	f7 01       	movw	r30, r14
    21ce:	80 83       	st	Z, r24
    21d0:	f8 01       	movw	r30, r16
    21d2:	82 81       	ldd	r24, Z+2	; 0x02
    21d4:	f7 01       	movw	r30, r14
    21d6:	82 83       	std	Z+2, r24	; 0x02
    21d8:	f8 01       	movw	r30, r16
    21da:	81 81       	ldd	r24, Z+1	; 0x01
    21dc:	f7 01       	movw	r30, r14
    21de:	81 83       	std	Z+1, r24	; 0x01
    21e0:	b0 fe       	sbrs	r11, 0
    21e2:	04 c0       	rjmp	.+8      	; 0x21ec <adcch_read_configuration+0x7a>
    21e4:	f8 01       	movw	r30, r16
    21e6:	86 81       	ldd	r24, Z+6	; 0x06
    21e8:	f7 01       	movw	r30, r14
    21ea:	83 83       	std	Z+3, r24	; 0x03
    21ec:	c6 01       	movw	r24, r12
    21ee:	0e 94 62 01 	call	0x2c4	; 0x2c4 <adc_disable_clock>
    21f2:	af be       	out	0x3f, r10	; 63
    21f4:	0f 90       	pop	r0
    21f6:	df 91       	pop	r29
    21f8:	cf 91       	pop	r28
    21fa:	1f 91       	pop	r17
    21fc:	0f 91       	pop	r16
    21fe:	ff 90       	pop	r15
    2200:	ef 90       	pop	r14
    2202:	df 90       	pop	r13
    2204:	cf 90       	pop	r12
    2206:	bf 90       	pop	r11
    2208:	af 90       	pop	r10
    220a:	08 95       	ret

0000220c <sysclk_init>:
    220c:	8f ef       	ldi	r24, 0xFF	; 255
    220e:	80 93 70 00 	sts	0x0070, r24	; 0x800070 <__TEXT_REGION_LENGTH__+0x700070>
    2212:	80 93 71 00 	sts	0x0071, r24	; 0x800071 <__TEXT_REGION_LENGTH__+0x700071>
    2216:	80 93 72 00 	sts	0x0072, r24	; 0x800072 <__TEXT_REGION_LENGTH__+0x700072>
    221a:	80 93 73 00 	sts	0x0073, r24	; 0x800073 <__TEXT_REGION_LENGTH__+0x700073>
    221e:	80 93 74 00 	sts	0x0074, r24	; 0x800074 <__TEXT_REGION_LENGTH__+0x700074>
    2222:	80 93 75 00 	sts	0x0075, r24	; 0x800075 <__TEXT_REGION_LENGTH__+0x700075>
    2226:	80 93 76 00 	sts	0x0076, r24	; 0x800076 <__TEXT_REGION_LENGTH__+0x700076>
    222a:	08 95       	ret

0000222c <sysclk_enable_module>:
    222c:	cf 93       	push	r28
    222e:	df 93       	push	r29
    2230:	1f 92       	push	r1
    2232:	cd b7       	in	r28, 0x3d	; 61
    2234:	de b7       	in	r29, 0x3e	; 62
    2236:	9f b7       	in	r25, 0x3f	; 63
    2238:	99 83       	std	Y+1, r25	; 0x01
    223a:	f8 94       	cli
    223c:	99 81       	ldd	r25, Y+1	; 0x01
    223e:	e8 2f       	mov	r30, r24
    2240:	f0 e0       	ldi	r31, 0x00	; 0
    2242:	e0 59       	subi	r30, 0x90	; 144
    2244:	ff 4f       	sbci	r31, 0xFF	; 255
    2246:	60 95       	com	r22
    2248:	80 81       	ld	r24, Z
    224a:	68 23       	and	r22, r24
    224c:	60 83       	st	Z, r22
    224e:	9f bf       	out	0x3f, r25	; 63
    2250:	0f 90       	pop	r0
    2252:	df 91       	pop	r29
    2254:	cf 91       	pop	r28
    2256:	08 95       	ret

00002258 <sysclk_disable_module>:
    2258:	cf 93       	push	r28
    225a:	df 93       	push	r29
    225c:	1f 92       	push	r1
    225e:	cd b7       	in	r28, 0x3d	; 61
    2260:	de b7       	in	r29, 0x3e	; 62
    2262:	9f b7       	in	r25, 0x3f	; 63
    2264:	99 83       	std	Y+1, r25	; 0x01
    2266:	f8 94       	cli
    2268:	99 81       	ldd	r25, Y+1	; 0x01
    226a:	e8 2f       	mov	r30, r24
    226c:	f0 e0       	ldi	r31, 0x00	; 0
    226e:	e0 59       	subi	r30, 0x90	; 144
    2270:	ff 4f       	sbci	r31, 0xFF	; 255
    2272:	80 81       	ld	r24, Z
    2274:	68 2b       	or	r22, r24
    2276:	60 83       	st	Z, r22
    2278:	9f bf       	out	0x3f, r25	; 63
    227a:	0f 90       	pop	r0
    227c:	df 91       	pop	r29
    227e:	cf 91       	pop	r28
    2280:	08 95       	ret

00002282 <nvm_read_byte>:
    2282:	40 91 ca 01 	lds	r20, 0x01CA	; 0x8001ca <__TEXT_REGION_LENGTH__+0x7001ca>
    2286:	e6 2f       	mov	r30, r22
    2288:	f7 2f       	mov	r31, r23
    228a:	80 93 ca 01 	sts	0x01CA, r24	; 0x8001ca <__TEXT_REGION_LENGTH__+0x7001ca>
    228e:	84 91       	lpm	r24, Z
    2290:	40 93 ca 01 	sts	0x01CA, r20	; 0x8001ca <__TEXT_REGION_LENGTH__+0x7001ca>
    2294:	08 95       	ret

00002296 <ioport_configure_port_pin>:
    2296:	cf 93       	push	r28
    2298:	df 93       	push	r29
    229a:	fc 01       	movw	r30, r24
    229c:	20 e0       	ldi	r18, 0x00	; 0
    229e:	30 e0       	ldi	r19, 0x00	; 0
    22a0:	c6 2f       	mov	r28, r22
    22a2:	d0 e0       	ldi	r29, 0x00	; 0
    22a4:	de 01       	movw	r26, r28
    22a6:	02 2e       	mov	r0, r18
    22a8:	02 c0       	rjmp	.+4      	; 0x22ae <ioport_configure_port_pin+0x18>
    22aa:	b5 95       	asr	r27
    22ac:	a7 95       	ror	r26
    22ae:	0a 94       	dec	r0
    22b0:	e2 f7       	brpl	.-8      	; 0x22aa <ioport_configure_port_pin+0x14>
    22b2:	a0 fd       	sbrc	r26, 0
    22b4:	50 8b       	std	Z+16, r21	; 0x10
    22b6:	2f 5f       	subi	r18, 0xFF	; 255
    22b8:	3f 4f       	sbci	r19, 0xFF	; 255
    22ba:	31 96       	adiw	r30, 0x01	; 1
    22bc:	28 30       	cpi	r18, 0x08	; 8
    22be:	31 05       	cpc	r19, r1
    22c0:	89 f7       	brne	.-30     	; 0x22a4 <ioport_configure_port_pin+0xe>
    22c2:	40 ff       	sbrs	r20, 0
    22c4:	0a c0       	rjmp	.+20     	; 0x22da <ioport_configure_port_pin+0x44>
    22c6:	41 ff       	sbrs	r20, 1
    22c8:	03 c0       	rjmp	.+6      	; 0x22d0 <ioport_configure_port_pin+0x3a>
    22ca:	fc 01       	movw	r30, r24
    22cc:	65 83       	std	Z+5, r22	; 0x05
    22ce:	02 c0       	rjmp	.+4      	; 0x22d4 <ioport_configure_port_pin+0x3e>
    22d0:	fc 01       	movw	r30, r24
    22d2:	66 83       	std	Z+6, r22	; 0x06
    22d4:	fc 01       	movw	r30, r24
    22d6:	61 83       	std	Z+1, r22	; 0x01
    22d8:	02 c0       	rjmp	.+4      	; 0x22de <ioport_configure_port_pin+0x48>
    22da:	fc 01       	movw	r30, r24
    22dc:	62 83       	std	Z+2, r22	; 0x02
    22de:	df 91       	pop	r29
    22e0:	cf 91       	pop	r28
    22e2:	08 95       	ret

000022e4 <board_init>:
    22e4:	43 e0       	ldi	r20, 0x03	; 3
    22e6:	50 e0       	ldi	r21, 0x00	; 0
    22e8:	61 e0       	ldi	r22, 0x01	; 1
    22ea:	80 e8       	ldi	r24, 0x80	; 128
    22ec:	96 e0       	ldi	r25, 0x06	; 6
    22ee:	d3 df       	rcall	.-90     	; 0x2296 <ioport_configure_port_pin>
    22f0:	43 e0       	ldi	r20, 0x03	; 3
    22f2:	50 e0       	ldi	r21, 0x00	; 0
    22f4:	62 e0       	ldi	r22, 0x02	; 2
    22f6:	80 e8       	ldi	r24, 0x80	; 128
    22f8:	96 e0       	ldi	r25, 0x06	; 6
    22fa:	cd df       	rcall	.-102    	; 0x2296 <ioport_configure_port_pin>
    22fc:	43 e0       	ldi	r20, 0x03	; 3
    22fe:	50 e0       	ldi	r21, 0x00	; 0
    2300:	64 e0       	ldi	r22, 0x04	; 4
    2302:	80 e8       	ldi	r24, 0x80	; 128
    2304:	96 e0       	ldi	r25, 0x06	; 6
    2306:	c7 df       	rcall	.-114    	; 0x2296 <ioport_configure_port_pin>
    2308:	43 e0       	ldi	r20, 0x03	; 3
    230a:	50 e0       	ldi	r21, 0x00	; 0
    230c:	68 e0       	ldi	r22, 0x08	; 8
    230e:	80 e8       	ldi	r24, 0x80	; 128
    2310:	96 e0       	ldi	r25, 0x06	; 6
    2312:	c1 df       	rcall	.-126    	; 0x2296 <ioport_configure_port_pin>
    2314:	43 e0       	ldi	r20, 0x03	; 3
    2316:	50 e0       	ldi	r21, 0x00	; 0
    2318:	60 e1       	ldi	r22, 0x10	; 16
    231a:	80 e8       	ldi	r24, 0x80	; 128
    231c:	96 e0       	ldi	r25, 0x06	; 6
    231e:	bb df       	rcall	.-138    	; 0x2296 <ioport_configure_port_pin>
    2320:	43 e0       	ldi	r20, 0x03	; 3
    2322:	50 e0       	ldi	r21, 0x00	; 0
    2324:	60 e2       	ldi	r22, 0x20	; 32
    2326:	80 e8       	ldi	r24, 0x80	; 128
    2328:	96 e0       	ldi	r25, 0x06	; 6
    232a:	b5 df       	rcall	.-150    	; 0x2296 <ioport_configure_port_pin>
    232c:	43 e0       	ldi	r20, 0x03	; 3
    232e:	50 e0       	ldi	r21, 0x00	; 0
    2330:	60 e4       	ldi	r22, 0x40	; 64
    2332:	80 e8       	ldi	r24, 0x80	; 128
    2334:	96 e0       	ldi	r25, 0x06	; 6
    2336:	af df       	rcall	.-162    	; 0x2296 <ioport_configure_port_pin>
    2338:	43 e0       	ldi	r20, 0x03	; 3
    233a:	50 e0       	ldi	r21, 0x00	; 0
    233c:	60 e8       	ldi	r22, 0x80	; 128
    233e:	80 e8       	ldi	r24, 0x80	; 128
    2340:	96 e0       	ldi	r25, 0x06	; 6
    2342:	a9 df       	rcall	.-174    	; 0x2296 <ioport_configure_port_pin>
    2344:	40 e0       	ldi	r20, 0x00	; 0
    2346:	58 e1       	ldi	r21, 0x18	; 24
    2348:	61 e0       	ldi	r22, 0x01	; 1
    234a:	80 e6       	ldi	r24, 0x60	; 96
    234c:	96 e0       	ldi	r25, 0x06	; 6
    234e:	a3 df       	rcall	.-186    	; 0x2296 <ioport_configure_port_pin>
    2350:	40 e0       	ldi	r20, 0x00	; 0
    2352:	58 e1       	ldi	r21, 0x18	; 24
    2354:	62 e0       	ldi	r22, 0x02	; 2
    2356:	80 e6       	ldi	r24, 0x60	; 96
    2358:	96 e0       	ldi	r25, 0x06	; 6
    235a:	9d df       	rcall	.-198    	; 0x2296 <ioport_configure_port_pin>
    235c:	40 e0       	ldi	r20, 0x00	; 0
    235e:	58 e1       	ldi	r21, 0x18	; 24
    2360:	64 e0       	ldi	r22, 0x04	; 4
    2362:	80 e6       	ldi	r24, 0x60	; 96
    2364:	96 e0       	ldi	r25, 0x06	; 6
    2366:	97 df       	rcall	.-210    	; 0x2296 <ioport_configure_port_pin>
    2368:	40 e0       	ldi	r20, 0x00	; 0
    236a:	58 e1       	ldi	r21, 0x18	; 24
    236c:	68 e0       	ldi	r22, 0x08	; 8
    236e:	80 e6       	ldi	r24, 0x60	; 96
    2370:	96 e0       	ldi	r25, 0x06	; 6
    2372:	91 df       	rcall	.-222    	; 0x2296 <ioport_configure_port_pin>
    2374:	40 e0       	ldi	r20, 0x00	; 0
    2376:	58 e1       	ldi	r21, 0x18	; 24
    2378:	60 e1       	ldi	r22, 0x10	; 16
    237a:	80 e6       	ldi	r24, 0x60	; 96
    237c:	96 e0       	ldi	r25, 0x06	; 6
    237e:	8b df       	rcall	.-234    	; 0x2296 <ioport_configure_port_pin>
    2380:	40 e0       	ldi	r20, 0x00	; 0
    2382:	58 e1       	ldi	r21, 0x18	; 24
    2384:	60 e2       	ldi	r22, 0x20	; 32
    2386:	80 e6       	ldi	r24, 0x60	; 96
    2388:	96 e0       	ldi	r25, 0x06	; 6
    238a:	85 df       	rcall	.-246    	; 0x2296 <ioport_configure_port_pin>
    238c:	40 e0       	ldi	r20, 0x00	; 0
    238e:	58 e1       	ldi	r21, 0x18	; 24
    2390:	61 e0       	ldi	r22, 0x01	; 1
    2392:	80 ee       	ldi	r24, 0xE0	; 224
    2394:	97 e0       	ldi	r25, 0x07	; 7
    2396:	7f df       	rcall	.-258    	; 0x2296 <ioport_configure_port_pin>
    2398:	40 e0       	ldi	r20, 0x00	; 0
    239a:	58 e1       	ldi	r21, 0x18	; 24
    239c:	62 e0       	ldi	r22, 0x02	; 2
    239e:	80 ee       	ldi	r24, 0xE0	; 224
    23a0:	97 e0       	ldi	r25, 0x07	; 7
    23a2:	79 df       	rcall	.-270    	; 0x2296 <ioport_configure_port_pin>
    23a4:	43 e0       	ldi	r20, 0x03	; 3
    23a6:	50 e0       	ldi	r21, 0x00	; 0
    23a8:	60 e8       	ldi	r22, 0x80	; 128
    23aa:	80 e4       	ldi	r24, 0x40	; 64
    23ac:	96 e0       	ldi	r25, 0x06	; 6
    23ae:	73 df       	rcall	.-282    	; 0x2296 <ioport_configure_port_pin>
    23b0:	43 e0       	ldi	r20, 0x03	; 3
    23b2:	50 e0       	ldi	r21, 0x00	; 0
    23b4:	60 e2       	ldi	r22, 0x20	; 32
    23b6:	80 e4       	ldi	r24, 0x40	; 64
    23b8:	96 e0       	ldi	r25, 0x06	; 6
    23ba:	6d df       	rcall	.-294    	; 0x2296 <ioport_configure_port_pin>
    23bc:	40 e0       	ldi	r20, 0x00	; 0
    23be:	50 e0       	ldi	r21, 0x00	; 0
    23c0:	60 e4       	ldi	r22, 0x40	; 64
    23c2:	80 e4       	ldi	r24, 0x40	; 64
    23c4:	96 e0       	ldi	r25, 0x06	; 6
    23c6:	67 df       	rcall	.-306    	; 0x2296 <ioport_configure_port_pin>
    23c8:	43 e0       	ldi	r20, 0x03	; 3
    23ca:	50 e0       	ldi	r21, 0x00	; 0
    23cc:	68 e0       	ldi	r22, 0x08	; 8
    23ce:	80 ec       	ldi	r24, 0xC0	; 192
    23d0:	97 e0       	ldi	r25, 0x07	; 7
    23d2:	61 df       	rcall	.-318    	; 0x2296 <ioport_configure_port_pin>
    23d4:	40 e0       	ldi	r20, 0x00	; 0
    23d6:	50 e0       	ldi	r21, 0x00	; 0
    23d8:	61 e0       	ldi	r22, 0x01	; 1
    23da:	80 e0       	ldi	r24, 0x00	; 0
    23dc:	96 e0       	ldi	r25, 0x06	; 6
    23de:	5b df       	rcall	.-330    	; 0x2296 <ioport_configure_port_pin>
    23e0:	40 e0       	ldi	r20, 0x00	; 0
    23e2:	50 e0       	ldi	r21, 0x00	; 0
    23e4:	64 e0       	ldi	r22, 0x04	; 4
    23e6:	80 e0       	ldi	r24, 0x00	; 0
    23e8:	96 e0       	ldi	r25, 0x06	; 6
    23ea:	55 df       	rcall	.-342    	; 0x2296 <ioport_configure_port_pin>
    23ec:	40 e0       	ldi	r20, 0x00	; 0
    23ee:	50 e0       	ldi	r21, 0x00	; 0
    23f0:	62 e0       	ldi	r22, 0x02	; 2
    23f2:	80 e2       	ldi	r24, 0x20	; 32
    23f4:	96 e0       	ldi	r25, 0x06	; 6
    23f6:	4f df       	rcall	.-354    	; 0x2296 <ioport_configure_port_pin>
    23f8:	40 e0       	ldi	r20, 0x00	; 0
    23fa:	57 e0       	ldi	r21, 0x07	; 7
    23fc:	62 e0       	ldi	r22, 0x02	; 2
    23fe:	80 e2       	ldi	r24, 0x20	; 32
    2400:	96 e0       	ldi	r25, 0x06	; 6
    2402:	49 df       	rcall	.-366    	; 0x2296 <ioport_configure_port_pin>
    2404:	40 e0       	ldi	r20, 0x00	; 0
    2406:	57 e0       	ldi	r21, 0x07	; 7
    2408:	61 e0       	ldi	r22, 0x01	; 1
    240a:	80 e2       	ldi	r24, 0x20	; 32
    240c:	96 e0       	ldi	r25, 0x06	; 6
    240e:	43 df       	rcall	.-378    	; 0x2296 <ioport_configure_port_pin>
    2410:	41 e0       	ldi	r20, 0x01	; 1
    2412:	50 e0       	ldi	r21, 0x00	; 0
    2414:	68 e0       	ldi	r22, 0x08	; 8
    2416:	80 e2       	ldi	r24, 0x20	; 32
    2418:	96 e0       	ldi	r25, 0x06	; 6
    241a:	3d df       	rcall	.-390    	; 0x2296 <ioport_configure_port_pin>
    241c:	40 e0       	ldi	r20, 0x00	; 0
    241e:	57 e0       	ldi	r21, 0x07	; 7
    2420:	64 e0       	ldi	r22, 0x04	; 4
    2422:	80 e2       	ldi	r24, 0x20	; 32
    2424:	96 e0       	ldi	r25, 0x06	; 6
    2426:	37 df       	rcall	.-402    	; 0x2296 <ioport_configure_port_pin>
    2428:	43 e0       	ldi	r20, 0x03	; 3
    242a:	50 e0       	ldi	r21, 0x00	; 0
    242c:	68 e0       	ldi	r22, 0x08	; 8
    242e:	80 ec       	ldi	r24, 0xC0	; 192
    2430:	97 e0       	ldi	r25, 0x07	; 7
    2432:	31 df       	rcall	.-414    	; 0x2296 <ioport_configure_port_pin>
    2434:	43 e0       	ldi	r20, 0x03	; 3
    2436:	50 e0       	ldi	r21, 0x00	; 0
    2438:	68 e0       	ldi	r22, 0x08	; 8
    243a:	80 e4       	ldi	r24, 0x40	; 64
    243c:	96 e0       	ldi	r25, 0x06	; 6
    243e:	2b df       	rcall	.-426    	; 0x2296 <ioport_configure_port_pin>
    2440:	40 e0       	ldi	r20, 0x00	; 0
    2442:	50 e0       	ldi	r21, 0x00	; 0
    2444:	64 e0       	ldi	r22, 0x04	; 4
    2446:	80 e4       	ldi	r24, 0x40	; 64
    2448:	96 e0       	ldi	r25, 0x06	; 6
    244a:	25 df       	rcall	.-438    	; 0x2296 <ioport_configure_port_pin>
    244c:	43 e0       	ldi	r20, 0x03	; 3
    244e:	50 e0       	ldi	r21, 0x00	; 0
    2450:	68 e0       	ldi	r22, 0x08	; 8
    2452:	80 e6       	ldi	r24, 0x60	; 96
    2454:	96 e0       	ldi	r25, 0x06	; 6
    2456:	1f df       	rcall	.-450    	; 0x2296 <ioport_configure_port_pin>
    2458:	40 e0       	ldi	r20, 0x00	; 0
    245a:	50 e0       	ldi	r21, 0x00	; 0
    245c:	64 e0       	ldi	r22, 0x04	; 4
    245e:	80 e6       	ldi	r24, 0x60	; 96
    2460:	96 e0       	ldi	r25, 0x06	; 6
    2462:	19 cf       	rjmp	.-462    	; 0x2296 <ioport_configure_port_pin>
    2464:	08 95       	ret

00002466 <adca_handler>:
			break;
		received_message[i] = received_byte;
	}
	//uint8_t *ret = &received_message;
	//return &received_message[0];
}
    2466:	9a 01       	movw	r18, r20
    2468:	a6 e6       	ldi	r26, 0x66	; 102
    246a:	b1 e0       	ldi	r27, 0x01	; 1
    246c:	99 d1       	rcall	.+818    	; 0x27a0 <__umulhisi3>
    246e:	20 91 bd 20 	lds	r18, 0x20BD	; 0x8020bd <tempsense>
    2472:	30 91 be 20 	lds	r19, 0x20BE	; 0x8020be <tempsense+0x1>
    2476:	40 e0       	ldi	r20, 0x00	; 0
    2478:	50 e0       	ldi	r21, 0x00	; 0
    247a:	70 d1       	rcall	.+736    	; 0x275c <__udivmodsi4>
    247c:	20 93 bb 20 	sts	0x20BB, r18	; 0x8020bb <last_temperature>
    2480:	30 93 bc 20 	sts	0x20BC, r19	; 0x8020bc <last_temperature+0x1>
    2484:	08 95       	ret

00002486 <adcb_handler>:
    2486:	40 93 ba 20 	sts	0x20BA, r20	; 0x8020ba <light_value>
    248a:	08 95       	ret

0000248c <publishUSARTMessage>:
    248c:	0f 93       	push	r16
    248e:	1f 93       	push	r17
    2490:	cf 93       	push	r28
    2492:	df 93       	push	r29
    2494:	66 23       	and	r22, r22
    2496:	59 f0       	breq	.+22     	; 0x24ae <publishUSARTMessage+0x22>
    2498:	8c 01       	movw	r16, r24
    249a:	ec 01       	movw	r28, r24
    249c:	06 0f       	add	r16, r22
    249e:	11 1d       	adc	r17, r1
    24a0:	69 91       	ld	r22, Y+
    24a2:	80 ea       	ldi	r24, 0xA0	; 160
    24a4:	98 e0       	ldi	r25, 0x08	; 8
    24a6:	15 d9       	rcall	.-3542   	; 0x16d2 <usart_putchar>
    24a8:	c0 17       	cp	r28, r16
    24aa:	d1 07       	cpc	r29, r17
    24ac:	c9 f7       	brne	.-14     	; 0x24a0 <publishUSARTMessage+0x14>
    24ae:	df 91       	pop	r29
    24b0:	cf 91       	pop	r28
    24b2:	1f 91       	pop	r17
    24b4:	0f 91       	pop	r16
    24b6:	08 95       	ret

000024b8 <playSound>:

/*
*	Function to play sound from speaker
*	index	-	var to identify which sound to play
*/
void playSound(uint8_t index) {
    24b8:	0f 93       	push	r16
    24ba:	1f 93       	push	r17
    24bc:	cf 93       	push	r28
    24be:	df 93       	push	r29
    24c0:	1f 92       	push	r1
    24c2:	cd b7       	in	r28, 0x3d	; 61
    24c4:	de b7       	in	r29, 0x3e	; 62
	uint8_t i = 0;
	uint16_t count = 0;
	bool condition = true;
	soundRate = ROOT_NOTE * index;
    24c6:	22 e2       	ldi	r18, 0x22	; 34
    24c8:	36 e5       	ldi	r19, 0x56	; 86
    24ca:	48 2f       	mov	r20, r24
    24cc:	42 9f       	mul	r20, r18
    24ce:	c0 01       	movw	r24, r0
    24d0:	43 9f       	mul	r20, r19
    24d2:	90 0d       	add	r25, r0
    24d4:	11 24       	eor	r1, r1
    24d6:	80 93 07 20 	sts	0x2007, r24	; 0x802007 <soundRate>
    24da:	90 93 08 20 	sts	0x2008, r25	; 0x802008 <soundRate+0x1>

		// Start the timer/counter.
		TCC4.CTRLA = TC45_CLKSEL_DIV1_gc;
	#else
		// Configure timer/counter to generate events at sample rate.
		sysclk_enable_module(SYSCLK_PORT_C, SYSCLK_TC0);
    24de:	61 e0       	ldi	r22, 0x01	; 1
    24e0:	83 e0       	ldi	r24, 0x03	; 3
    24e2:	a4 de       	rcall	.-696    	; 0x222c <sysclk_enable_module>
		TCC0.PER = (sysclk_get_per_hz() / soundRate) - 1;
    24e4:	20 91 07 20 	lds	r18, 0x2007	; 0x802007 <soundRate>
    24e8:	30 91 08 20 	lds	r19, 0x2008	; 0x802008 <soundRate+0x1>
    24ec:	40 e0       	ldi	r20, 0x00	; 0
    24ee:	50 e0       	ldi	r21, 0x00	; 0
    24f0:	60 e8       	ldi	r22, 0x80	; 128
    24f2:	74 e8       	ldi	r23, 0x84	; 132
    24f4:	8e e1       	ldi	r24, 0x1E	; 30
    24f6:	90 e0       	ldi	r25, 0x00	; 0
    24f8:	31 d1       	rcall	.+610    	; 0x275c <__udivmodsi4>
    24fa:	21 50       	subi	r18, 0x01	; 1
    24fc:	31 09       	sbc	r19, r1
    24fe:	00 e0       	ldi	r16, 0x00	; 0
    2500:	18 e0       	ldi	r17, 0x08	; 8
    2502:	f8 01       	movw	r30, r16
    2504:	26 a3       	std	Z+38, r18	; 0x26
    2506:	37 a3       	std	Z+39, r19	; 0x27

		// Configure event channel 0 to generate events upon T/C overflow.
		sysclk_enable_module(SYSCLK_PORT_GEN, SYSCLK_EVSYS);
    2508:	62 e0       	ldi	r22, 0x02	; 2
    250a:	80 e0       	ldi	r24, 0x00	; 0
    250c:	8f de       	rcall	.-738    	; 0x222c <sysclk_enable_module>
		EVSYS.CH0MUX = EVSYS_CHMUX_TCC0_OVF_gc;
    250e:	80 ec       	ldi	r24, 0xC0	; 192
    2510:	80 93 80 01 	sts	0x0180, r24	; 0x800180 <__TEXT_REGION_LENGTH__+0x700180>

		// Start the timer/counter.
		TCC0.CTRLA = TC_CLKSEL_DIV1_gc;
    2514:	81 e0       	ldi	r24, 0x01	; 1
    2516:	f8 01       	movw	r30, r16
    2518:	80 83       	st	Z, r24
*	Function to play sound from speaker
*	index	-	var to identify which sound to play
*/
void playSound(uint8_t index) {
	uint8_t i = 0;
	uint16_t count = 0;
    251a:	20 e0       	ldi	r18, 0x00	; 0
    251c:	30 e0       	ldi	r19, 0x00	; 0
/*
*	Function to play sound from speaker
*	index	-	var to identify which sound to play
*/
void playSound(uint8_t index) {
	uint8_t i = 0;
    251e:	90 e0       	ldi	r25, 0x00	; 0
 */
__always_inline static bool dac_channel_is_ready(DAC_t *dac, uint8_t ch_mask)
{
	Assert(dac);

	return (dac->STATUS & ch_mask) == ch_mask;
    2520:	e0 e2       	ldi	r30, 0x20	; 32
    2522:	f3 e0       	ldi	r31, 0x03	; 3
    2524:	85 81       	ldd	r24, Z+5	; 0x05
__always_inline static void dac_wait_for_channel_ready(DAC_t *dac,
		uint8_t ch_mask)
{
	Assert(dac);

	do { } while (!dac_channel_is_ready(dac, ch_mask));
    2526:	80 ff       	sbrs	r24, 0
    2528:	fd cf       	rjmp	.-6      	; 0x2524 <playSound+0x6c>
		TCC0.CTRLA = TC_CLKSEL_DIV1_gc;
	#endif
	
	do {
		dac_wait_for_channel_ready(&SPEAKER_DAC, SPEAKER_DAC_CHANNEL);
		dac_set_channel_value(&SPEAKER_DAC, SPEAKER_DAC_CHANNEL, sine[i]);
    252a:	a9 2f       	mov	r26, r25
    252c:	b0 e0       	ldi	r27, 0x00	; 0
    252e:	aa 0f       	add	r26, r26
    2530:	bb 1f       	adc	r27, r27
    2532:	ab 5d       	subi	r26, 0xDB	; 219
    2534:	bf 4d       	sbci	r27, 0xDF	; 223
    2536:	4d 91       	ld	r20, X+
    2538:	5c 91       	ld	r21, X

typedef uint8_t irqflags_t;

static inline irqflags_t cpu_irq_save(void)
{
	volatile irqflags_t flags = SREG;
    253a:	8f b7       	in	r24, 0x3f	; 63
    253c:	89 83       	std	Y+1, r24	; 0x01
	cpu_irq_disable();
    253e:	f8 94       	cli
	return flags;
    2540:	89 81       	ldd	r24, Y+1	; 0x01
	ch = ilog2(ch_mask);
	Assert(ch <= 1);
	dac_ch = (uint16_t *)&dac->CH0DATA + ch;

	flags = cpu_irq_save();
	*dac_ch = val;
    2542:	40 8f       	std	Z+24, r20	; 0x18
    2544:	51 8f       	std	Z+25, r21	; 0x19
}

static inline void cpu_irq_restore(irqflags_t flags)
{
	barrier();
	SREG = flags;
    2546:	8f bf       	out	0x3f, r24	; 63
		i++;
    2548:	9f 5f       	subi	r25, 0xFF	; 255
		i%=NR_OF_SAMPLES;
    254a:	9f 71       	andi	r25, 0x1F	; 31
		if(i==0)
    254c:	11 f4       	brne	.+4      	; 0x2552 <playSound+0x9a>
			count++;
    254e:	2f 5f       	subi	r18, 0xFF	; 255
    2550:	3f 4f       	sbci	r19, 0xFF	; 255
		if(count>=SOUND_DURATION)
    2552:	20 3d       	cpi	r18, 0xD0	; 208
    2554:	47 e0       	ldi	r20, 0x07	; 7
    2556:	34 07       	cpc	r19, r20
    2558:	28 f3       	brcs	.-54     	; 0x2524 <playSound+0x6c>
			condition = false;
	} while(condition);
}
    255a:	0f 90       	pop	r0
    255c:	df 91       	pop	r29
    255e:	cf 91       	pop	r28
    2560:	1f 91       	pop	r17
    2562:	0f 91       	pop	r16
    2564:	08 95       	ret

00002566 <main>:
	19661, 19913, 20659, 21870, 23500, 25486, 27752, 30211,
};


int main (void)
{
    2566:	cf 93       	push	r28
    2568:	df 93       	push	r29
    256a:	cd b7       	in	r28, 0x3d	; 61
    256c:	de b7       	in	r29, 0x3e	; 62
    256e:	6d 97       	sbiw	r28, 0x1d	; 29
    2570:	cd bf       	out	0x3d, r28	; 61
    2572:	de bf       	out	0x3e, r29	; 62

	/* Initialize the board.
	 * The board-specific conf_board.h file contains the configuration of
	 * the board initialization.
	 */
	board_init();
    2574:	b7 de       	rcall	.-658    	; 0x22e4 <board_init>
	sysclk_init();
    2576:	4a de       	rcall	.-876    	; 0x220c <sysclk_init>
    2578:	e3 ec       	ldi	r30, 0xC3	; 195
{
#ifdef CONFIG_SLEEPMGR_ENABLE
	uint8_t i;

	for (i = 0; i < SLEEPMGR_NR_OF_MODES - 1; i++) {
		sleepmgr_locks[i] = 0;
    257a:	f0 e2       	ldi	r31, 0x20	; 32
    257c:	10 82       	st	Z, r1
    257e:	11 82       	std	Z+1, r1	; 0x01
    2580:	12 82       	std	Z+2, r1	; 0x02
    2582:	13 82       	std	Z+3, r1	; 0x03
    2584:	14 82       	std	Z+4, r1	; 0x04
    2586:	ff 24       	eor	r15, r15
	}
	sleepmgr_locks[SLEEPMGR_NR_OF_MODES - 1] = 1;
    2588:	f3 94       	inc	r15
    258a:	f5 82       	std	Z+5, r15	; 0x05
    258c:	0f 2e       	mov	r0, r31
	sleepmgr_init();
	irq_initialize_vectors();
    258e:	f7 e0       	ldi	r31, 0x07	; 7
    2590:	ef 2e       	mov	r14, r31
    2592:	f0 2d       	mov	r31, r0
    2594:	e0 92 a2 00 	sts	0x00A2, r14	; 0x8000a2 <__TEXT_REGION_LENGTH__+0x7000a2>
    2598:	78 94       	sei
	cpu_irq_enable();
    259a:	60 e0       	ldi	r22, 0x00	; 0
		.charlength = USART_SERIAL_CHAR_LENGTH,
		.paritytype = USART_SERIAL_PARITY,
		.stopbits = USART_SERIAL_STOP_BIT
	};
	// Initialize USART driver in RS232 mode
	usart_init_rs232(USART_SERIAL, &USART_SERIAL_OPTIONS);
    259c:	70 e2       	ldi	r23, 0x20	; 32
    259e:	80 ea       	ldi	r24, 0xA0	; 160
    25a0:	98 e0       	ldi	r25, 0x08	; 8
    25a2:	ae d9       	rcall	.-3236   	; 0x1900 <usart_init_rs232>
    25a4:	be 01       	movw	r22, r28
	
	/************************************************************************/
	/* ADCA CONFIG                                                                     */
	/************************************************************************/
	// Initialize ADC configuration structures.
	adc_read_configuration(&ADCA, &adca_conf);
    25a6:	6f 5f       	subi	r22, 0xFF	; 255
    25a8:	7f 4f       	sbci	r23, 0xFF	; 255
    25aa:	80 e0       	ldi	r24, 0x00	; 0
    25ac:	92 e0       	ldi	r25, 0x02	; 2
    25ae:	59 dd       	rcall	.-1358   	; 0x2062 <adc_read_configuration>
    25b0:	ae 01       	movw	r20, r28
	adcch_read_configuration(&ADCA, ADC_CH0, &adccha_conf);
    25b2:	48 5f       	subi	r20, 0xF8	; 248
    25b4:	5f 4f       	sbci	r21, 0xFF	; 255
    25b6:	61 e0       	ldi	r22, 0x01	; 1
    25b8:	80 e0       	ldi	r24, 0x00	; 0
    25ba:	92 e0       	ldi	r25, 0x02	; 2
    25bc:	da dd       	rcall	.-1100   	; 0x2172 <adcch_read_configuration>
    25be:	9a 81       	ldd	r25, Y+2	; 0x02
static inline void adc_set_conversion_parameters(struct adc_config *conf,
		enum adc_sign sign, enum adc_resolution res,
		enum adc_reference ref)
{
	/* Preserve all but conversion and resolution config. */
	conf->ctrlb &= ~(ADC_CONMODE_bm | ADC_RESOLUTION_gm);
    25c0:	8b 81       	ldd	r24, Y+3	; 0x03
	conf->ctrlb |= (uint8_t)res | (uint8_t)sign;

	conf->refctrl &= ~ADC_REFSEL_gm;
    25c2:	8f 7c       	andi	r24, 0xCF	; 207
    25c4:	68 94       	set
		psc = ADC_PRESCALER_DIV256_gc;
	} else {
		psc = ADC_PRESCALER_DIV512_gc;
	}

	conf->prescaler = psc;
    25c6:	dd 24       	eor	r13, r13
    25c8:	d1 f8       	bld	r13, 1
    25ca:	dd 82       	std	Y+5, r13	; 0x05
    25cc:	91 7e       	andi	r25, 0xE1	; 225
	Assert(base_ev_ch <= 3);
#endif

	switch (trig) {
	case ADC_TRIG_MANUAL:
		conf->ctrlb &= ~ADC_FREERUN_bm;
    25ce:	9a 83       	std	Y+2, r25	; 0x02
    25d0:	1c 82       	std	Y+4, r1	; 0x04
		conf->evctrl = ADC_EVACT_NONE_gc;
    25d2:	81 60       	ori	r24, 0x01	; 1
 * \arg \c ADC_INT_BANDGAP for bandgap reference.
 */
static inline void adc_enable_internal_input(struct adc_config *conf,
		uint8_t int_inp)
{
	conf->refctrl |= int_inp;
    25d4:	8b 83       	std	Y+3, r24	; 0x03
    25d6:	be 01       	movw	r22, r28
			ADC_REF_BANDGAP);
	adc_set_clock_rate(&adca_conf, 200000UL);
	adc_set_conversion_trigger(&adca_conf, ADC_TRIG_MANUAL, 1, 0);
	adc_enable_internal_input(&adca_conf, ADC_INT_TEMPSENSE);

	adc_write_configuration(&ADCA, &adca_conf);
    25d8:	6f 5f       	subi	r22, 0xFF	; 255
    25da:	7f 4f       	sbci	r23, 0xFF	; 255
    25dc:	80 e0       	ldi	r24, 0x00	; 0
    25de:	92 e0       	ldi	r25, 0x02	; 2
    25e0:	d8 dc       	rcall	.-1616   	; 0x1f92 <adc_write_configuration>
    25e2:	63 e3       	ldi	r22, 0x33	; 51
	adc_set_callback(&ADCA, &adca_handler);
    25e4:	72 e1       	ldi	r23, 0x12	; 18
    25e6:	80 e0       	ldi	r24, 0x00	; 0
    25e8:	92 e0       	ldi	r25, 0x02	; 2
    25ea:	0e 94 21 01 	call	0x242	; 0x242 <adc_set_callback>
    25ee:	18 86       	std	Y+8, r1	; 0x08
	if (pos >= ADCCH_POS_TEMPSENSE) {
		/* Configure for internal input. */
		Assert(gain == 1);
		Assert(neg == ADCCH_NEG_NONE);

		ch_conf->ctrl = ADC_CH_INPUTMODE_INTERNAL_gc;
    25f0:	19 86       	std	Y+9, r1	; 0x09
		ch_conf->muxctrl = (pos - ADCCH_POS_TEMPSENSE) <<
    25f2:	8a 85       	ldd	r24, Y+10	; 0x0a
 * \param ch_conf Pointer to ADC channel configuration.
 */
static inline void adcch_enable_interrupt(struct adc_channel_config *ch_conf)
{
	ch_conf->intctrl &= ~ADC_CH_INTLVL_gm;
	ch_conf->intctrl |= CONFIG_ADC_INTLVL;
    25f4:	80 7f       	andi	r24, 0xF0	; 240
    25f6:	81 60       	ori	r24, 0x01	; 1
    25f8:	8a 87       	std	Y+10, r24	; 0x0a
    25fa:	ae 01       	movw	r20, r28
	adcch_set_input(&adccha_conf, ADCCH_POS_TEMPSENSE, ADCCH_NEG_NONE,
			1);
	adcch_set_interrupt_mode(&adccha_conf, ADCCH_MODE_COMPLETE);
	adcch_enable_interrupt(&adccha_conf);

	adcch_write_configuration(&ADCA, ADC_CH0, &adccha_conf);
    25fc:	48 5f       	subi	r20, 0xF8	; 248
    25fe:	5f 4f       	sbci	r21, 0xFF	; 255
    2600:	61 e0       	ldi	r22, 0x01	; 1
    2602:	80 e0       	ldi	r24, 0x00	; 0
    2604:	92 e0       	ldi	r25, 0x02	; 2
    2606:	68 dd       	rcall	.-1328   	; 0x20d8 <adcch_write_configuration>
 *
 * \param address Byte offset into the signature row
 */
static inline uint8_t nvm_read_production_signature_row(uint8_t address)
{
	return nvm_read_byte(NVM_CMD_READ_CALIB_ROW_gc, address);
    2608:	6f e2       	ldi	r22, 0x2F	; 47
    260a:	70 e0       	ldi	r23, 0x00	; 0
    260c:	82 e0       	ldi	r24, 0x02	; 2
    260e:	39 de       	rcall	.-910    	; 0x2282 <nvm_read_byte>
		break;
#endif

#if defined(ADCA) || defined(ADCB)
	case ADC_CAL_TEMPSENSE:
		data = nvm_read_production_signature_row(TEMPSENSE1);
    2610:	08 2f       	mov	r16, r24
    2612:	10 e0       	ldi	r17, 0x00	; 0
		data <<= 8;
    2614:	10 2f       	mov	r17, r16
    2616:	00 27       	eor	r16, r16
    2618:	6e e2       	ldi	r22, 0x2E	; 46
    261a:	70 e0       	ldi	r23, 0x00	; 0
    261c:	82 e0       	ldi	r24, 0x02	; 2
    261e:	31 de       	rcall	.-926    	; 0x2282 <nvm_read_byte>
    2620:	08 2b       	or	r16, r24
	
	// Get measurement for 85 degrees C (358 kelvin) from calibration data.
	tempsense = adc_get_calibration_data(ADC_CAL_TEMPSENSE);
    2622:	00 93 bd 20 	sts	0x20BD, r16	; 0x8020bd <tempsense>
    2626:	10 93 be 20 	sts	0x20BE, r17	; 0x8020be <tempsense+0x1>
    262a:	80 e0       	ldi	r24, 0x00	; 0
	// Enable the ADC 
	adc_enable(&ADCA);
    262c:	92 e0       	ldi	r25, 0x02	; 2
    262e:	0e 94 81 01 	call	0x302	; 0x302 <adc_enable>
	
	/************************************************************************/
	/* ADCB CONFIG                                                                     */
	/************************************************************************/
	// Initialize ADC configuration structures.
	adc_read_configuration(&ADCB, &adcb_conf);
    2632:	be 01       	movw	r22, r28
    2634:	64 5f       	subi	r22, 0xF4	; 244
    2636:	7f 4f       	sbci	r23, 0xFF	; 255
    2638:	80 e4       	ldi	r24, 0x40	; 64
    263a:	92 e0       	ldi	r25, 0x02	; 2
    263c:	12 dd       	rcall	.-1500   	; 0x2062 <adc_read_configuration>
	adcch_read_configuration(&ADCB, ADC_CH0, &adcchb_conf);
    263e:	ae 01       	movw	r20, r28
    2640:	4d 5e       	subi	r20, 0xED	; 237
    2642:	5f 4f       	sbci	r21, 0xFF	; 255
    2644:	61 e0       	ldi	r22, 0x01	; 1
    2646:	80 e4       	ldi	r24, 0x40	; 64
    2648:	92 e0       	ldi	r25, 0x02	; 2
    264a:	93 dd       	rcall	.-1242   	; 0x2172 <adcch_read_configuration>
    264c:	9d 85       	ldd	r25, Y+13	; 0x0d
static inline void adc_set_conversion_parameters(struct adc_config *conf,
		enum adc_sign sign, enum adc_resolution res,
		enum adc_reference ref)
{
	/* Preserve all but conversion and resolution config. */
	conf->ctrlb &= ~(ADC_CONMODE_bm | ADC_RESOLUTION_gm);
    264e:	8e 85       	ldd	r24, Y+14	; 0x0e
	conf->ctrlb |= (uint8_t)res | (uint8_t)sign;

	conf->refctrl &= ~ADC_REFSEL_gm;
    2650:	8f 7c       	andi	r24, 0xCF	; 207
    2652:	d8 8a       	std	Y+16, r13	; 0x10
		psc = ADC_PRESCALER_DIV256_gc;
	} else {
		psc = ADC_PRESCALER_DIV512_gc;
	}

	conf->prescaler = psc;
    2654:	91 7e       	andi	r25, 0xE1	; 225
	Assert(base_ev_ch <= 3);
#endif

	switch (trig) {
	case ADC_TRIG_MANUAL:
		conf->ctrlb &= ~ADC_FREERUN_bm;
    2656:	9d 87       	std	Y+13, r25	; 0x0d
    2658:	1f 86       	std	Y+15, r1	; 0x0f
 * \arg \c ADC_INT_BANDGAP for bandgap reference.
 */
static inline void adc_enable_internal_input(struct adc_config *conf,
		uint8_t int_inp)
{
	conf->refctrl |= int_inp;
    265a:	81 60       	ori	r24, 0x01	; 1
    265c:	8e 87       	std	Y+14, r24	; 0x0e
			ch_conf->muxctrl = (pos << ADC_CH_MUXPOS_gp) |
					((neg == ADCCH_NEG_PAD_GND) ?
					ADC_CH_MUXNEG_MODE10_GND_gc
					: ADC_CH_MUXNEG_MODE10_INTGND_gc);
		} else {
			ch_conf->ctrl = ADC_CH_INPUTMODE_DIFFWGAIN_gc |
    265e:	eb 8a       	std	Y+19, r14	; 0x13
					adcch_get_gain_setting(gain);
			ch_conf->muxctrl = (pos << ADC_CH_MUXPOS_gp) |
    2660:	8c e0       	ldi	r24, 0x0C	; 12
    2662:	8c 8b       	std	Y+20, r24	; 0x14
			ADC_REF_BANDGAP);
	adc_set_clock_rate(&adcb_conf, 200000UL);
	adc_set_conversion_trigger(&adcb_conf, ADC_TRIG_MANUAL, 1, 0);
	adc_enable_internal_input(&adcb_conf, ADC_INT_TEMPSENSE);
	adcch_set_input(&adcchb_conf,LIGHT_SENSOR_ADC_INPUT,ADCCH_NEG_INTERNAL_GND,2);
	adc_write_configuration(&ADCB, &adcb_conf);
    2664:	be 01       	movw	r22, r28
    2666:	64 5f       	subi	r22, 0xF4	; 244
    2668:	7f 4f       	sbci	r23, 0xFF	; 255
    266a:	80 e4       	ldi	r24, 0x40	; 64
    266c:	92 e0       	ldi	r25, 0x02	; 2
    266e:	91 dc       	rcall	.-1758   	; 0x1f92 <adc_write_configuration>
    2670:	63 e4       	ldi	r22, 0x43	; 67
	adc_set_callback(&ADCB, &adcb_handler);
    2672:	72 e1       	ldi	r23, 0x12	; 18
    2674:	80 e4       	ldi	r24, 0x40	; 64
    2676:	92 e0       	ldi	r25, 0x02	; 2
    2678:	0e 94 21 01 	call	0x242	; 0x242 <adc_set_callback>
 * \param ch_conf Pointer to ADC channel configuration.
 */
static inline void adcch_enable_interrupt(struct adc_channel_config *ch_conf)
{
	ch_conf->intctrl &= ~ADC_CH_INTLVL_gm;
	ch_conf->intctrl |= CONFIG_ADC_INTLVL;
    267c:	8d 89       	ldd	r24, Y+21	; 0x15
    267e:	80 7f       	andi	r24, 0xF0	; 240
    2680:	81 60       	ori	r24, 0x01	; 1
    2682:	8d 8b       	std	Y+21, r24	; 0x15
	 * - interrupts disabled
	 */
	adcch_set_interrupt_mode(&adcchb_conf, ADCCH_MODE_COMPLETE);
	adcch_enable_interrupt(&adcchb_conf);

	adcch_write_configuration(&ADCB, ADC_CH0, &adcchb_conf);
    2684:	ae 01       	movw	r20, r28
    2686:	4d 5e       	subi	r20, 0xED	; 237
    2688:	5f 4f       	sbci	r21, 0xFF	; 255
    268a:	61 e0       	ldi	r22, 0x01	; 1
    268c:	80 e4       	ldi	r24, 0x40	; 64
    268e:	92 e0       	ldi	r25, 0x02	; 2
    2690:	23 dd       	rcall	.-1466   	; 0x20d8 <adcch_write_configuration>
    2692:	80 e4       	ldi	r24, 0x40	; 64
	
	adc_enable(&ADCB);
    2694:	92 e0       	ldi	r25, 0x02	; 2
    2696:	0e 94 81 01 	call	0x302	; 0x302 <adc_enable>
    269a:	be 01       	movw	r22, r28
	
	/************************************************************************/
	/* DAC CONFIG                                                                     */
	/************************************************************************/
	dac_read_configuration(&SPEAKER_DAC, &conf);
    269c:	69 5e       	subi	r22, 0xE9	; 233
    269e:	7f 4f       	sbci	r23, 0xFF	; 255
    26a0:	80 e2       	ldi	r24, 0x20	; 32
    26a2:	93 e0       	ldi	r25, 0x03	; 3
    26a4:	0e 94 76 02 	call	0x4ec	; 0x4ec <dac_read_configuration>
    26a8:	f9 8e       	std	Y+25, r15	; 0x19
 */
__always_inline static void dac_set_conversion_parameters(
		struct dac_config *conf, enum dac_reference ref,
		enum dac_adjust adj)
{
	conf->ctrlc = (uint8_t)ref | (uint8_t)adj;
    26aa:	84 e0       	ldi	r24, 0x04	; 4
	Assert(ilog2(ch_mask) <= 2);
	Assert((ch_mask & int_out_ch_mask) == int_out_ch_mask);
	Assert(int_out_ch_mask != (DAC_CH0 | DAC_CH1));

	// Enable internal and external output channels.
	conf->ctrla = ((ch_mask ^ int_out_ch_mask) << DAC_CH0EN_bp) |
    26ac:	8f 8b       	std	Y+23, r24	; 0x17
    26ae:	88 8d       	ldd	r24, Y+24	; 0x18
		uint8_t ch_mask, uint8_t ev_ch)
{
	Assert(ev_ch <= 7);

	conf->ctrlb &= ~(DAC_CH1TRIG_bm | DAC_CH0TRIG_bm);
	conf->ctrlb |= (ch_mask << DAC_CH0TRIG_bp);
    26b0:	8c 79       	andi	r24, 0x9C	; 156
    26b2:	81 60       	ori	r24, 0x01	; 1
    26b4:	88 8f       	std	Y+24, r24	; 0x18
    26b6:	1a 8e       	std	Y+26, r1	; 0x1a
	conf->evctrl = ev_ch << DAC_EVSEL_gp;
    26b8:	8b 8d       	ldd	r24, Y+27	; 0x1b
		setting = cycles_log2 << DAC_CONINTVAL_gp;
	} else {
		setting = DAC_CONINTVAL_128CLK_gc;
	}
	conf->timctrl &= ~DAC_CONINTVAL_gm;
	conf->timctrl |= setting;
    26ba:	8f 78       	andi	r24, 0x8F	; 143
    26bc:	80 61       	ori	r24, 0x10	; 16
    26be:	8b 8f       	std	Y+27, r24	; 0x1b
    26c0:	be 01       	movw	r22, r28
	dac_set_active_channel(&conf, SPEAKER_DAC_CHANNEL, 0);
	dac_set_conversion_trigger(&conf, SPEAKER_DAC_CHANNEL, 0);
	#if XMEGA_DAC_VERSION_1
		dac_set_conversion_interval(&conf, 1);
	#endif
		dac_write_configuration(&SPEAKER_DAC, &conf);
    26c2:	69 5e       	subi	r22, 0xE9	; 233
    26c4:	7f 4f       	sbci	r23, 0xFF	; 255
    26c6:	80 e2       	ldi	r24, 0x20	; 32
    26c8:	93 e0       	ldi	r25, 0x03	; 3
    26ca:	0e 94 19 02 	call	0x432	; 0x432 <dac_write_configuration>
    26ce:	80 e2       	ldi	r24, 0x20	; 32
		dac_enable(&SPEAKER_DAC);
    26d0:	93 e0       	ldi	r25, 0x03	; 3
    26d2:	0e 94 ed 01 	call	0x3da	; 0x3da <dac_enable>
    26d6:	a1 2c       	mov	r10, r1
 */
static inline void adc_start_conversion(ADC_t *adc, uint8_t ch_mask)
{
	irqflags_t flags = cpu_irq_save();
#if !XMEGA_E
	adc->CTRLA |= ch_mask << ADC_CH0START_bp;
    26d8:	68 94       	set
    26da:	bb 24       	eor	r11, r11
    26dc:	b1 f8       	bld	r11, 1
    26de:	68 94       	set
    26e0:	cc 24       	eor	r12, r12
    26e2:	c6 f8       	bld	r12, 6
    26e4:	dd 24       	eor	r13, r13
    26e6:	d1 f8       	bld	r13, 1
    26e8:	0f 2e       	mov	r0, r31
	/************************************************************************/
	while (true) {
		//Add Delay
		adc_start_conversion(&ADCA, ADC_CH0);
		adc_start_conversion(&ADCB, ADC_CH0);
		sprintf(tempArray,"_%4d_%5d_",last_temperature,light_value);
    26ea:	f8 e1       	ldi	r31, 0x18	; 24
    26ec:	ef 2e       	mov	r14, r31
    26ee:	f0 e2       	ldi	r31, 0x20	; 32
    26f0:	ff 2e       	mov	r15, r31
    26f2:	f0 2d       	mov	r31, r0
    26f4:	09 e0       	ldi	r16, 0x09	; 9
    26f6:	10 e2       	ldi	r17, 0x20	; 32
    26f8:	8f b7       	in	r24, 0x3f	; 63

typedef uint8_t irqflags_t;

static inline irqflags_t cpu_irq_save(void)
{
	volatile irqflags_t flags = SREG;
    26fa:	8c 8f       	std	Y+28, r24	; 0x1c
    26fc:	f8 94       	cli
	cpu_irq_disable();
    26fe:	9c 8d       	ldd	r25, Y+28	; 0x1c
	return flags;
    2700:	f5 01       	movw	r30, r10
    2702:	80 81       	ld	r24, Z
    2704:	84 60       	ori	r24, 0x04	; 4
    2706:	80 83       	st	Z, r24
    2708:	9f bf       	out	0x3f, r25	; 63
}

static inline void cpu_irq_restore(irqflags_t flags)
{
	barrier();
	SREG = flags;
    270a:	8f b7       	in	r24, 0x3f	; 63

typedef uint8_t irqflags_t;

static inline irqflags_t cpu_irq_save(void)
{
	volatile irqflags_t flags = SREG;
    270c:	8d 8f       	std	Y+29, r24	; 0x1d
    270e:	f8 94       	cli
	cpu_irq_disable();
    2710:	9d 8d       	ldd	r25, Y+29	; 0x1d
	return flags;
    2712:	f6 01       	movw	r30, r12
    2714:	80 81       	ld	r24, Z
    2716:	84 60       	ori	r24, 0x04	; 4
    2718:	80 83       	st	Z, r24
    271a:	9f bf       	out	0x3f, r25	; 63
}

static inline void cpu_irq_restore(irqflags_t flags)
{
	barrier();
	SREG = flags;
    271c:	20 91 ba 20 	lds	r18, 0x20BA	; 0x8020ba <light_value>
    2720:	80 91 bb 20 	lds	r24, 0x20BB	; 0x8020bb <last_temperature>
    2724:	90 91 bc 20 	lds	r25, 0x20BC	; 0x8020bc <last_temperature+0x1>
    2728:	1f 92       	push	r1
    272a:	2f 93       	push	r18
    272c:	9f 93       	push	r25
    272e:	8f 93       	push	r24
    2730:	ff 92       	push	r15
    2732:	ef 92       	push	r14
    2734:	1f 93       	push	r17
    2736:	0f 93       	push	r16
		publishUSARTMessage(tempArray,12);
    2738:	42 d0       	rcall	.+132    	; 0x27be <sprintf>
    273a:	6c e0       	ldi	r22, 0x0C	; 12
    273c:	c8 01       	movw	r24, r16
    273e:	a6 de       	rcall	.-692    	; 0x248c <publishUSARTMessage>
		playSound(2);
    2740:	82 e0       	ldi	r24, 0x02	; 2
    2742:	ba de       	rcall	.-652    	; 0x24b8 <playSound>
    2744:	ff e7       	ldi	r31, 0x7F	; 127
	#else
		//round up by default
		__ticks_dc = (uint32_t)(ceil(fabs(__tmp)));
	#endif

	__builtin_avr_delay_cycles(__ticks_dc);
    2746:	2a e1       	ldi	r18, 0x1A	; 26
    2748:	86 e0       	ldi	r24, 0x06	; 6
    274a:	f1 50       	subi	r31, 0x01	; 1
    274c:	20 40       	sbci	r18, 0x00	; 0
    274e:	80 40       	sbci	r24, 0x00	; 0
    2750:	e1 f7       	brne	.-8      	; 0x274a <main+0x1e4>
    2752:	00 c0       	rjmp	.+0      	; 0x2754 <main+0x1ee>
    2754:	00 00       	nop
    2756:	cd bf       	out	0x3d, r28	; 61
    2758:	de bf       	out	0x3e, r29	; 62
    275a:	ce cf       	rjmp	.-100    	; 0x26f8 <main+0x192>

0000275c <__udivmodsi4>:
    275c:	a1 e2       	ldi	r26, 0x21	; 33
    275e:	1a 2e       	mov	r1, r26
    2760:	aa 1b       	sub	r26, r26
    2762:	bb 1b       	sub	r27, r27
    2764:	fd 01       	movw	r30, r26
    2766:	0d c0       	rjmp	.+26     	; 0x2782 <__udivmodsi4_ep>

00002768 <__udivmodsi4_loop>:
    2768:	aa 1f       	adc	r26, r26
    276a:	bb 1f       	adc	r27, r27
    276c:	ee 1f       	adc	r30, r30
    276e:	ff 1f       	adc	r31, r31
    2770:	a2 17       	cp	r26, r18
    2772:	b3 07       	cpc	r27, r19
    2774:	e4 07       	cpc	r30, r20
    2776:	f5 07       	cpc	r31, r21
    2778:	20 f0       	brcs	.+8      	; 0x2782 <__udivmodsi4_ep>
    277a:	a2 1b       	sub	r26, r18
    277c:	b3 0b       	sbc	r27, r19
    277e:	e4 0b       	sbc	r30, r20
    2780:	f5 0b       	sbc	r31, r21

00002782 <__udivmodsi4_ep>:
    2782:	66 1f       	adc	r22, r22
    2784:	77 1f       	adc	r23, r23
    2786:	88 1f       	adc	r24, r24
    2788:	99 1f       	adc	r25, r25
    278a:	1a 94       	dec	r1
    278c:	69 f7       	brne	.-38     	; 0x2768 <__udivmodsi4_loop>
    278e:	60 95       	com	r22
    2790:	70 95       	com	r23
    2792:	80 95       	com	r24
    2794:	90 95       	com	r25
    2796:	9b 01       	movw	r18, r22
    2798:	ac 01       	movw	r20, r24
    279a:	bd 01       	movw	r22, r26
    279c:	cf 01       	movw	r24, r30
    279e:	08 95       	ret

000027a0 <__umulhisi3>:
    27a0:	a2 9f       	mul	r26, r18
    27a2:	b0 01       	movw	r22, r0
    27a4:	b3 9f       	mul	r27, r19
    27a6:	c0 01       	movw	r24, r0
    27a8:	a3 9f       	mul	r26, r19
    27aa:	70 0d       	add	r23, r0
    27ac:	81 1d       	adc	r24, r1
    27ae:	11 24       	eor	r1, r1
    27b0:	91 1d       	adc	r25, r1
    27b2:	b2 9f       	mul	r27, r18
    27b4:	70 0d       	add	r23, r0
    27b6:	81 1d       	adc	r24, r1
    27b8:	11 24       	eor	r1, r1
    27ba:	91 1d       	adc	r25, r1
    27bc:	08 95       	ret

000027be <sprintf>:
    27be:	0f 93       	push	r16
    27c0:	1f 93       	push	r17
    27c2:	cf 93       	push	r28
    27c4:	df 93       	push	r29
    27c6:	cd b7       	in	r28, 0x3d	; 61
    27c8:	de b7       	in	r29, 0x3e	; 62
    27ca:	2e 97       	sbiw	r28, 0x0e	; 14
    27cc:	cd bf       	out	0x3d, r28	; 61
    27ce:	de bf       	out	0x3e, r29	; 62
    27d0:	0e 89       	ldd	r16, Y+22	; 0x16
    27d2:	1f 89       	ldd	r17, Y+23	; 0x17
    27d4:	86 e0       	ldi	r24, 0x06	; 6
    27d6:	8c 83       	std	Y+4, r24	; 0x04
    27d8:	09 83       	std	Y+1, r16	; 0x01
    27da:	1a 83       	std	Y+2, r17	; 0x02
    27dc:	8f ef       	ldi	r24, 0xFF	; 255
    27de:	9f e7       	ldi	r25, 0x7F	; 127
    27e0:	8d 83       	std	Y+5, r24	; 0x05
    27e2:	9e 83       	std	Y+6, r25	; 0x06
    27e4:	ae 01       	movw	r20, r28
    27e6:	46 5e       	subi	r20, 0xE6	; 230
    27e8:	5f 4f       	sbci	r21, 0xFF	; 255
    27ea:	68 8d       	ldd	r22, Y+24	; 0x18
    27ec:	79 8d       	ldd	r23, Y+25	; 0x19
    27ee:	ce 01       	movw	r24, r28
    27f0:	01 96       	adiw	r24, 0x01	; 1
    27f2:	0d d0       	rcall	.+26     	; 0x280e <vfprintf>
    27f4:	ef 81       	ldd	r30, Y+7	; 0x07
    27f6:	f8 85       	ldd	r31, Y+8	; 0x08
    27f8:	e0 0f       	add	r30, r16
    27fa:	f1 1f       	adc	r31, r17
    27fc:	10 82       	st	Z, r1
    27fe:	2e 96       	adiw	r28, 0x0e	; 14
    2800:	cd bf       	out	0x3d, r28	; 61
    2802:	de bf       	out	0x3e, r29	; 62
    2804:	df 91       	pop	r29
    2806:	cf 91       	pop	r28
    2808:	1f 91       	pop	r17
    280a:	0f 91       	pop	r16
    280c:	08 95       	ret

0000280e <vfprintf>:
    280e:	2f 92       	push	r2
    2810:	3f 92       	push	r3
    2812:	4f 92       	push	r4
    2814:	5f 92       	push	r5
    2816:	6f 92       	push	r6
    2818:	7f 92       	push	r7
    281a:	8f 92       	push	r8
    281c:	9f 92       	push	r9
    281e:	af 92       	push	r10
    2820:	bf 92       	push	r11
    2822:	cf 92       	push	r12
    2824:	df 92       	push	r13
    2826:	ef 92       	push	r14
    2828:	ff 92       	push	r15
    282a:	0f 93       	push	r16
    282c:	1f 93       	push	r17
    282e:	cf 93       	push	r28
    2830:	df 93       	push	r29
    2832:	cd b7       	in	r28, 0x3d	; 61
    2834:	de b7       	in	r29, 0x3e	; 62
    2836:	2b 97       	sbiw	r28, 0x0b	; 11
    2838:	cd bf       	out	0x3d, r28	; 61
    283a:	de bf       	out	0x3e, r29	; 62
    283c:	6c 01       	movw	r12, r24
    283e:	7b 01       	movw	r14, r22
    2840:	8a 01       	movw	r16, r20
    2842:	fc 01       	movw	r30, r24
    2844:	16 82       	std	Z+6, r1	; 0x06
    2846:	17 82       	std	Z+7, r1	; 0x07
    2848:	83 81       	ldd	r24, Z+3	; 0x03
    284a:	81 ff       	sbrs	r24, 1
    284c:	bf c1       	rjmp	.+894    	; 0x2bcc <vfprintf+0x3be>
    284e:	ce 01       	movw	r24, r28
    2850:	01 96       	adiw	r24, 0x01	; 1
    2852:	3c 01       	movw	r6, r24
    2854:	f6 01       	movw	r30, r12
    2856:	93 81       	ldd	r25, Z+3	; 0x03
    2858:	f7 01       	movw	r30, r14
    285a:	93 fd       	sbrc	r25, 3
    285c:	85 91       	lpm	r24, Z+
    285e:	93 ff       	sbrs	r25, 3
    2860:	81 91       	ld	r24, Z+
    2862:	7f 01       	movw	r14, r30
    2864:	88 23       	and	r24, r24
    2866:	09 f4       	brne	.+2      	; 0x286a <vfprintf+0x5c>
    2868:	ad c1       	rjmp	.+858    	; 0x2bc4 <vfprintf+0x3b6>
    286a:	85 32       	cpi	r24, 0x25	; 37
    286c:	39 f4       	brne	.+14     	; 0x287c <vfprintf+0x6e>
    286e:	93 fd       	sbrc	r25, 3
    2870:	85 91       	lpm	r24, Z+
    2872:	93 ff       	sbrs	r25, 3
    2874:	81 91       	ld	r24, Z+
    2876:	7f 01       	movw	r14, r30
    2878:	85 32       	cpi	r24, 0x25	; 37
    287a:	21 f4       	brne	.+8      	; 0x2884 <vfprintf+0x76>
    287c:	b6 01       	movw	r22, r12
    287e:	90 e0       	ldi	r25, 0x00	; 0
    2880:	d3 d1       	rcall	.+934    	; 0x2c28 <fputc>
    2882:	e8 cf       	rjmp	.-48     	; 0x2854 <vfprintf+0x46>
    2884:	91 2c       	mov	r9, r1
    2886:	21 2c       	mov	r2, r1
    2888:	31 2c       	mov	r3, r1
    288a:	ff e1       	ldi	r31, 0x1F	; 31
    288c:	f3 15       	cp	r31, r3
    288e:	d8 f0       	brcs	.+54     	; 0x28c6 <vfprintf+0xb8>
    2890:	8b 32       	cpi	r24, 0x2B	; 43
    2892:	79 f0       	breq	.+30     	; 0x28b2 <vfprintf+0xa4>
    2894:	38 f4       	brcc	.+14     	; 0x28a4 <vfprintf+0x96>
    2896:	80 32       	cpi	r24, 0x20	; 32
    2898:	79 f0       	breq	.+30     	; 0x28b8 <vfprintf+0xaa>
    289a:	83 32       	cpi	r24, 0x23	; 35
    289c:	a1 f4       	brne	.+40     	; 0x28c6 <vfprintf+0xb8>
    289e:	23 2d       	mov	r18, r3
    28a0:	20 61       	ori	r18, 0x10	; 16
    28a2:	1d c0       	rjmp	.+58     	; 0x28de <vfprintf+0xd0>
    28a4:	8d 32       	cpi	r24, 0x2D	; 45
    28a6:	61 f0       	breq	.+24     	; 0x28c0 <vfprintf+0xb2>
    28a8:	80 33       	cpi	r24, 0x30	; 48
    28aa:	69 f4       	brne	.+26     	; 0x28c6 <vfprintf+0xb8>
    28ac:	23 2d       	mov	r18, r3
    28ae:	21 60       	ori	r18, 0x01	; 1
    28b0:	16 c0       	rjmp	.+44     	; 0x28de <vfprintf+0xd0>
    28b2:	83 2d       	mov	r24, r3
    28b4:	82 60       	ori	r24, 0x02	; 2
    28b6:	38 2e       	mov	r3, r24
    28b8:	e3 2d       	mov	r30, r3
    28ba:	e4 60       	ori	r30, 0x04	; 4
    28bc:	3e 2e       	mov	r3, r30
    28be:	2a c0       	rjmp	.+84     	; 0x2914 <vfprintf+0x106>
    28c0:	f3 2d       	mov	r31, r3
    28c2:	f8 60       	ori	r31, 0x08	; 8
    28c4:	1d c0       	rjmp	.+58     	; 0x2900 <vfprintf+0xf2>
    28c6:	37 fc       	sbrc	r3, 7
    28c8:	2d c0       	rjmp	.+90     	; 0x2924 <vfprintf+0x116>
    28ca:	20 ed       	ldi	r18, 0xD0	; 208
    28cc:	28 0f       	add	r18, r24
    28ce:	2a 30       	cpi	r18, 0x0A	; 10
    28d0:	40 f0       	brcs	.+16     	; 0x28e2 <vfprintf+0xd4>
    28d2:	8e 32       	cpi	r24, 0x2E	; 46
    28d4:	b9 f4       	brne	.+46     	; 0x2904 <vfprintf+0xf6>
    28d6:	36 fc       	sbrc	r3, 6
    28d8:	75 c1       	rjmp	.+746    	; 0x2bc4 <vfprintf+0x3b6>
    28da:	23 2d       	mov	r18, r3
    28dc:	20 64       	ori	r18, 0x40	; 64
    28de:	32 2e       	mov	r3, r18
    28e0:	19 c0       	rjmp	.+50     	; 0x2914 <vfprintf+0x106>
    28e2:	36 fe       	sbrs	r3, 6
    28e4:	06 c0       	rjmp	.+12     	; 0x28f2 <vfprintf+0xe4>
    28e6:	8a e0       	ldi	r24, 0x0A	; 10
    28e8:	98 9e       	mul	r9, r24
    28ea:	20 0d       	add	r18, r0
    28ec:	11 24       	eor	r1, r1
    28ee:	92 2e       	mov	r9, r18
    28f0:	11 c0       	rjmp	.+34     	; 0x2914 <vfprintf+0x106>
    28f2:	ea e0       	ldi	r30, 0x0A	; 10
    28f4:	2e 9e       	mul	r2, r30
    28f6:	20 0d       	add	r18, r0
    28f8:	11 24       	eor	r1, r1
    28fa:	22 2e       	mov	r2, r18
    28fc:	f3 2d       	mov	r31, r3
    28fe:	f0 62       	ori	r31, 0x20	; 32
    2900:	3f 2e       	mov	r3, r31
    2902:	08 c0       	rjmp	.+16     	; 0x2914 <vfprintf+0x106>
    2904:	8c 36       	cpi	r24, 0x6C	; 108
    2906:	21 f4       	brne	.+8      	; 0x2910 <vfprintf+0x102>
    2908:	83 2d       	mov	r24, r3
    290a:	80 68       	ori	r24, 0x80	; 128
    290c:	38 2e       	mov	r3, r24
    290e:	02 c0       	rjmp	.+4      	; 0x2914 <vfprintf+0x106>
    2910:	88 36       	cpi	r24, 0x68	; 104
    2912:	41 f4       	brne	.+16     	; 0x2924 <vfprintf+0x116>
    2914:	f7 01       	movw	r30, r14
    2916:	93 fd       	sbrc	r25, 3
    2918:	85 91       	lpm	r24, Z+
    291a:	93 ff       	sbrs	r25, 3
    291c:	81 91       	ld	r24, Z+
    291e:	7f 01       	movw	r14, r30
    2920:	81 11       	cpse	r24, r1
    2922:	b3 cf       	rjmp	.-154    	; 0x288a <vfprintf+0x7c>
    2924:	98 2f       	mov	r25, r24
    2926:	9f 7d       	andi	r25, 0xDF	; 223
    2928:	95 54       	subi	r25, 0x45	; 69
    292a:	93 30       	cpi	r25, 0x03	; 3
    292c:	28 f4       	brcc	.+10     	; 0x2938 <vfprintf+0x12a>
    292e:	0c 5f       	subi	r16, 0xFC	; 252
    2930:	1f 4f       	sbci	r17, 0xFF	; 255
    2932:	9f e3       	ldi	r25, 0x3F	; 63
    2934:	99 83       	std	Y+1, r25	; 0x01
    2936:	0d c0       	rjmp	.+26     	; 0x2952 <vfprintf+0x144>
    2938:	83 36       	cpi	r24, 0x63	; 99
    293a:	31 f0       	breq	.+12     	; 0x2948 <vfprintf+0x13a>
    293c:	83 37       	cpi	r24, 0x73	; 115
    293e:	71 f0       	breq	.+28     	; 0x295c <vfprintf+0x14e>
    2940:	83 35       	cpi	r24, 0x53	; 83
    2942:	09 f0       	breq	.+2      	; 0x2946 <vfprintf+0x138>
    2944:	55 c0       	rjmp	.+170    	; 0x29f0 <vfprintf+0x1e2>
    2946:	20 c0       	rjmp	.+64     	; 0x2988 <vfprintf+0x17a>
    2948:	f8 01       	movw	r30, r16
    294a:	80 81       	ld	r24, Z
    294c:	89 83       	std	Y+1, r24	; 0x01
    294e:	0e 5f       	subi	r16, 0xFE	; 254
    2950:	1f 4f       	sbci	r17, 0xFF	; 255
    2952:	88 24       	eor	r8, r8
    2954:	83 94       	inc	r8
    2956:	91 2c       	mov	r9, r1
    2958:	53 01       	movw	r10, r6
    295a:	12 c0       	rjmp	.+36     	; 0x2980 <vfprintf+0x172>
    295c:	28 01       	movw	r4, r16
    295e:	f2 e0       	ldi	r31, 0x02	; 2
    2960:	4f 0e       	add	r4, r31
    2962:	51 1c       	adc	r5, r1
    2964:	f8 01       	movw	r30, r16
    2966:	a0 80       	ld	r10, Z
    2968:	b1 80       	ldd	r11, Z+1	; 0x01
    296a:	36 fe       	sbrs	r3, 6
    296c:	03 c0       	rjmp	.+6      	; 0x2974 <vfprintf+0x166>
    296e:	69 2d       	mov	r22, r9
    2970:	70 e0       	ldi	r23, 0x00	; 0
    2972:	02 c0       	rjmp	.+4      	; 0x2978 <vfprintf+0x16a>
    2974:	6f ef       	ldi	r22, 0xFF	; 255
    2976:	7f ef       	ldi	r23, 0xFF	; 255
    2978:	c5 01       	movw	r24, r10
    297a:	4b d1       	rcall	.+662    	; 0x2c12 <strnlen>
    297c:	4c 01       	movw	r8, r24
    297e:	82 01       	movw	r16, r4
    2980:	f3 2d       	mov	r31, r3
    2982:	ff 77       	andi	r31, 0x7F	; 127
    2984:	3f 2e       	mov	r3, r31
    2986:	15 c0       	rjmp	.+42     	; 0x29b2 <vfprintf+0x1a4>
    2988:	28 01       	movw	r4, r16
    298a:	22 e0       	ldi	r18, 0x02	; 2
    298c:	42 0e       	add	r4, r18
    298e:	51 1c       	adc	r5, r1
    2990:	f8 01       	movw	r30, r16
    2992:	a0 80       	ld	r10, Z
    2994:	b1 80       	ldd	r11, Z+1	; 0x01
    2996:	36 fe       	sbrs	r3, 6
    2998:	03 c0       	rjmp	.+6      	; 0x29a0 <vfprintf+0x192>
    299a:	69 2d       	mov	r22, r9
    299c:	70 e0       	ldi	r23, 0x00	; 0
    299e:	02 c0       	rjmp	.+4      	; 0x29a4 <vfprintf+0x196>
    29a0:	6f ef       	ldi	r22, 0xFF	; 255
    29a2:	7f ef       	ldi	r23, 0xFF	; 255
    29a4:	c5 01       	movw	r24, r10
    29a6:	2a d1       	rcall	.+596    	; 0x2bfc <strnlen_P>
    29a8:	4c 01       	movw	r8, r24
    29aa:	f3 2d       	mov	r31, r3
    29ac:	f0 68       	ori	r31, 0x80	; 128
    29ae:	3f 2e       	mov	r3, r31
    29b0:	82 01       	movw	r16, r4
    29b2:	33 fc       	sbrc	r3, 3
    29b4:	19 c0       	rjmp	.+50     	; 0x29e8 <vfprintf+0x1da>
    29b6:	82 2d       	mov	r24, r2
    29b8:	90 e0       	ldi	r25, 0x00	; 0
    29ba:	88 16       	cp	r8, r24
    29bc:	99 06       	cpc	r9, r25
    29be:	a0 f4       	brcc	.+40     	; 0x29e8 <vfprintf+0x1da>
    29c0:	b6 01       	movw	r22, r12
    29c2:	80 e2       	ldi	r24, 0x20	; 32
    29c4:	90 e0       	ldi	r25, 0x00	; 0
    29c6:	30 d1       	rcall	.+608    	; 0x2c28 <fputc>
    29c8:	2a 94       	dec	r2
    29ca:	f5 cf       	rjmp	.-22     	; 0x29b6 <vfprintf+0x1a8>
    29cc:	f5 01       	movw	r30, r10
    29ce:	37 fc       	sbrc	r3, 7
    29d0:	85 91       	lpm	r24, Z+
    29d2:	37 fe       	sbrs	r3, 7
    29d4:	81 91       	ld	r24, Z+
    29d6:	5f 01       	movw	r10, r30
    29d8:	b6 01       	movw	r22, r12
    29da:	90 e0       	ldi	r25, 0x00	; 0
    29dc:	25 d1       	rcall	.+586    	; 0x2c28 <fputc>
    29de:	21 10       	cpse	r2, r1
    29e0:	2a 94       	dec	r2
    29e2:	21 e0       	ldi	r18, 0x01	; 1
    29e4:	82 1a       	sub	r8, r18
    29e6:	91 08       	sbc	r9, r1
    29e8:	81 14       	cp	r8, r1
    29ea:	91 04       	cpc	r9, r1
    29ec:	79 f7       	brne	.-34     	; 0x29cc <vfprintf+0x1be>
    29ee:	e1 c0       	rjmp	.+450    	; 0x2bb2 <vfprintf+0x3a4>
    29f0:	84 36       	cpi	r24, 0x64	; 100
    29f2:	11 f0       	breq	.+4      	; 0x29f8 <vfprintf+0x1ea>
    29f4:	89 36       	cpi	r24, 0x69	; 105
    29f6:	39 f5       	brne	.+78     	; 0x2a46 <vfprintf+0x238>
    29f8:	f8 01       	movw	r30, r16
    29fa:	37 fe       	sbrs	r3, 7
    29fc:	07 c0       	rjmp	.+14     	; 0x2a0c <vfprintf+0x1fe>
    29fe:	60 81       	ld	r22, Z
    2a00:	71 81       	ldd	r23, Z+1	; 0x01
    2a02:	82 81       	ldd	r24, Z+2	; 0x02
    2a04:	93 81       	ldd	r25, Z+3	; 0x03
    2a06:	0c 5f       	subi	r16, 0xFC	; 252
    2a08:	1f 4f       	sbci	r17, 0xFF	; 255
    2a0a:	08 c0       	rjmp	.+16     	; 0x2a1c <vfprintf+0x20e>
    2a0c:	60 81       	ld	r22, Z
    2a0e:	71 81       	ldd	r23, Z+1	; 0x01
    2a10:	07 2e       	mov	r0, r23
    2a12:	00 0c       	add	r0, r0
    2a14:	88 0b       	sbc	r24, r24
    2a16:	99 0b       	sbc	r25, r25
    2a18:	0e 5f       	subi	r16, 0xFE	; 254
    2a1a:	1f 4f       	sbci	r17, 0xFF	; 255
    2a1c:	f3 2d       	mov	r31, r3
    2a1e:	ff 76       	andi	r31, 0x6F	; 111
    2a20:	3f 2e       	mov	r3, r31
    2a22:	97 ff       	sbrs	r25, 7
    2a24:	09 c0       	rjmp	.+18     	; 0x2a38 <vfprintf+0x22a>
    2a26:	90 95       	com	r25
    2a28:	80 95       	com	r24
    2a2a:	70 95       	com	r23
    2a2c:	61 95       	neg	r22
    2a2e:	7f 4f       	sbci	r23, 0xFF	; 255
    2a30:	8f 4f       	sbci	r24, 0xFF	; 255
    2a32:	9f 4f       	sbci	r25, 0xFF	; 255
    2a34:	f0 68       	ori	r31, 0x80	; 128
    2a36:	3f 2e       	mov	r3, r31
    2a38:	2a e0       	ldi	r18, 0x0A	; 10
    2a3a:	30 e0       	ldi	r19, 0x00	; 0
    2a3c:	a3 01       	movw	r20, r6
    2a3e:	30 d1       	rcall	.+608    	; 0x2ca0 <__ultoa_invert>
    2a40:	88 2e       	mov	r8, r24
    2a42:	86 18       	sub	r8, r6
    2a44:	44 c0       	rjmp	.+136    	; 0x2ace <vfprintf+0x2c0>
    2a46:	85 37       	cpi	r24, 0x75	; 117
    2a48:	31 f4       	brne	.+12     	; 0x2a56 <vfprintf+0x248>
    2a4a:	23 2d       	mov	r18, r3
    2a4c:	2f 7e       	andi	r18, 0xEF	; 239
    2a4e:	b2 2e       	mov	r11, r18
    2a50:	2a e0       	ldi	r18, 0x0A	; 10
    2a52:	30 e0       	ldi	r19, 0x00	; 0
    2a54:	25 c0       	rjmp	.+74     	; 0x2aa0 <vfprintf+0x292>
    2a56:	93 2d       	mov	r25, r3
    2a58:	99 7f       	andi	r25, 0xF9	; 249
    2a5a:	b9 2e       	mov	r11, r25
    2a5c:	8f 36       	cpi	r24, 0x6F	; 111
    2a5e:	c1 f0       	breq	.+48     	; 0x2a90 <vfprintf+0x282>
    2a60:	18 f4       	brcc	.+6      	; 0x2a68 <vfprintf+0x25a>
    2a62:	88 35       	cpi	r24, 0x58	; 88
    2a64:	79 f0       	breq	.+30     	; 0x2a84 <vfprintf+0x276>
    2a66:	ae c0       	rjmp	.+348    	; 0x2bc4 <vfprintf+0x3b6>
    2a68:	80 37       	cpi	r24, 0x70	; 112
    2a6a:	19 f0       	breq	.+6      	; 0x2a72 <vfprintf+0x264>
    2a6c:	88 37       	cpi	r24, 0x78	; 120
    2a6e:	21 f0       	breq	.+8      	; 0x2a78 <vfprintf+0x26a>
    2a70:	a9 c0       	rjmp	.+338    	; 0x2bc4 <vfprintf+0x3b6>
    2a72:	e9 2f       	mov	r30, r25
    2a74:	e0 61       	ori	r30, 0x10	; 16
    2a76:	be 2e       	mov	r11, r30
    2a78:	b4 fe       	sbrs	r11, 4
    2a7a:	0d c0       	rjmp	.+26     	; 0x2a96 <vfprintf+0x288>
    2a7c:	fb 2d       	mov	r31, r11
    2a7e:	f4 60       	ori	r31, 0x04	; 4
    2a80:	bf 2e       	mov	r11, r31
    2a82:	09 c0       	rjmp	.+18     	; 0x2a96 <vfprintf+0x288>
    2a84:	34 fe       	sbrs	r3, 4
    2a86:	0a c0       	rjmp	.+20     	; 0x2a9c <vfprintf+0x28e>
    2a88:	29 2f       	mov	r18, r25
    2a8a:	26 60       	ori	r18, 0x06	; 6
    2a8c:	b2 2e       	mov	r11, r18
    2a8e:	06 c0       	rjmp	.+12     	; 0x2a9c <vfprintf+0x28e>
    2a90:	28 e0       	ldi	r18, 0x08	; 8
    2a92:	30 e0       	ldi	r19, 0x00	; 0
    2a94:	05 c0       	rjmp	.+10     	; 0x2aa0 <vfprintf+0x292>
    2a96:	20 e1       	ldi	r18, 0x10	; 16
    2a98:	30 e0       	ldi	r19, 0x00	; 0
    2a9a:	02 c0       	rjmp	.+4      	; 0x2aa0 <vfprintf+0x292>
    2a9c:	20 e1       	ldi	r18, 0x10	; 16
    2a9e:	32 e0       	ldi	r19, 0x02	; 2
    2aa0:	f8 01       	movw	r30, r16
    2aa2:	b7 fe       	sbrs	r11, 7
    2aa4:	07 c0       	rjmp	.+14     	; 0x2ab4 <vfprintf+0x2a6>
    2aa6:	60 81       	ld	r22, Z
    2aa8:	71 81       	ldd	r23, Z+1	; 0x01
    2aaa:	82 81       	ldd	r24, Z+2	; 0x02
    2aac:	93 81       	ldd	r25, Z+3	; 0x03
    2aae:	0c 5f       	subi	r16, 0xFC	; 252
    2ab0:	1f 4f       	sbci	r17, 0xFF	; 255
    2ab2:	06 c0       	rjmp	.+12     	; 0x2ac0 <vfprintf+0x2b2>
    2ab4:	60 81       	ld	r22, Z
    2ab6:	71 81       	ldd	r23, Z+1	; 0x01
    2ab8:	80 e0       	ldi	r24, 0x00	; 0
    2aba:	90 e0       	ldi	r25, 0x00	; 0
    2abc:	0e 5f       	subi	r16, 0xFE	; 254
    2abe:	1f 4f       	sbci	r17, 0xFF	; 255
    2ac0:	a3 01       	movw	r20, r6
    2ac2:	ee d0       	rcall	.+476    	; 0x2ca0 <__ultoa_invert>
    2ac4:	88 2e       	mov	r8, r24
    2ac6:	86 18       	sub	r8, r6
    2ac8:	fb 2d       	mov	r31, r11
    2aca:	ff 77       	andi	r31, 0x7F	; 127
    2acc:	3f 2e       	mov	r3, r31
    2ace:	36 fe       	sbrs	r3, 6
    2ad0:	0d c0       	rjmp	.+26     	; 0x2aec <vfprintf+0x2de>
    2ad2:	23 2d       	mov	r18, r3
    2ad4:	2e 7f       	andi	r18, 0xFE	; 254
    2ad6:	a2 2e       	mov	r10, r18
    2ad8:	89 14       	cp	r8, r9
    2ada:	58 f4       	brcc	.+22     	; 0x2af2 <vfprintf+0x2e4>
    2adc:	34 fe       	sbrs	r3, 4
    2ade:	0b c0       	rjmp	.+22     	; 0x2af6 <vfprintf+0x2e8>
    2ae0:	32 fc       	sbrc	r3, 2
    2ae2:	09 c0       	rjmp	.+18     	; 0x2af6 <vfprintf+0x2e8>
    2ae4:	83 2d       	mov	r24, r3
    2ae6:	8e 7e       	andi	r24, 0xEE	; 238
    2ae8:	a8 2e       	mov	r10, r24
    2aea:	05 c0       	rjmp	.+10     	; 0x2af6 <vfprintf+0x2e8>
    2aec:	b8 2c       	mov	r11, r8
    2aee:	a3 2c       	mov	r10, r3
    2af0:	03 c0       	rjmp	.+6      	; 0x2af8 <vfprintf+0x2ea>
    2af2:	b8 2c       	mov	r11, r8
    2af4:	01 c0       	rjmp	.+2      	; 0x2af8 <vfprintf+0x2ea>
    2af6:	b9 2c       	mov	r11, r9
    2af8:	a4 fe       	sbrs	r10, 4
    2afa:	0f c0       	rjmp	.+30     	; 0x2b1a <vfprintf+0x30c>
    2afc:	fe 01       	movw	r30, r28
    2afe:	e8 0d       	add	r30, r8
    2b00:	f1 1d       	adc	r31, r1
    2b02:	80 81       	ld	r24, Z
    2b04:	80 33       	cpi	r24, 0x30	; 48
    2b06:	21 f4       	brne	.+8      	; 0x2b10 <vfprintf+0x302>
    2b08:	9a 2d       	mov	r25, r10
    2b0a:	99 7e       	andi	r25, 0xE9	; 233
    2b0c:	a9 2e       	mov	r10, r25
    2b0e:	09 c0       	rjmp	.+18     	; 0x2b22 <vfprintf+0x314>
    2b10:	a2 fe       	sbrs	r10, 2
    2b12:	06 c0       	rjmp	.+12     	; 0x2b20 <vfprintf+0x312>
    2b14:	b3 94       	inc	r11
    2b16:	b3 94       	inc	r11
    2b18:	04 c0       	rjmp	.+8      	; 0x2b22 <vfprintf+0x314>
    2b1a:	8a 2d       	mov	r24, r10
    2b1c:	86 78       	andi	r24, 0x86	; 134
    2b1e:	09 f0       	breq	.+2      	; 0x2b22 <vfprintf+0x314>
    2b20:	b3 94       	inc	r11
    2b22:	a3 fc       	sbrc	r10, 3
    2b24:	10 c0       	rjmp	.+32     	; 0x2b46 <vfprintf+0x338>
    2b26:	a0 fe       	sbrs	r10, 0
    2b28:	06 c0       	rjmp	.+12     	; 0x2b36 <vfprintf+0x328>
    2b2a:	b2 14       	cp	r11, r2
    2b2c:	80 f4       	brcc	.+32     	; 0x2b4e <vfprintf+0x340>
    2b2e:	28 0c       	add	r2, r8
    2b30:	92 2c       	mov	r9, r2
    2b32:	9b 18       	sub	r9, r11
    2b34:	0d c0       	rjmp	.+26     	; 0x2b50 <vfprintf+0x342>
    2b36:	b2 14       	cp	r11, r2
    2b38:	58 f4       	brcc	.+22     	; 0x2b50 <vfprintf+0x342>
    2b3a:	b6 01       	movw	r22, r12
    2b3c:	80 e2       	ldi	r24, 0x20	; 32
    2b3e:	90 e0       	ldi	r25, 0x00	; 0
    2b40:	73 d0       	rcall	.+230    	; 0x2c28 <fputc>
    2b42:	b3 94       	inc	r11
    2b44:	f8 cf       	rjmp	.-16     	; 0x2b36 <vfprintf+0x328>
    2b46:	b2 14       	cp	r11, r2
    2b48:	18 f4       	brcc	.+6      	; 0x2b50 <vfprintf+0x342>
    2b4a:	2b 18       	sub	r2, r11
    2b4c:	02 c0       	rjmp	.+4      	; 0x2b52 <vfprintf+0x344>
    2b4e:	98 2c       	mov	r9, r8
    2b50:	21 2c       	mov	r2, r1
    2b52:	a4 fe       	sbrs	r10, 4
    2b54:	0f c0       	rjmp	.+30     	; 0x2b74 <vfprintf+0x366>
    2b56:	b6 01       	movw	r22, r12
    2b58:	80 e3       	ldi	r24, 0x30	; 48
    2b5a:	90 e0       	ldi	r25, 0x00	; 0
    2b5c:	65 d0       	rcall	.+202    	; 0x2c28 <fputc>
    2b5e:	a2 fe       	sbrs	r10, 2
    2b60:	16 c0       	rjmp	.+44     	; 0x2b8e <vfprintf+0x380>
    2b62:	a1 fc       	sbrc	r10, 1
    2b64:	03 c0       	rjmp	.+6      	; 0x2b6c <vfprintf+0x35e>
    2b66:	88 e7       	ldi	r24, 0x78	; 120
    2b68:	90 e0       	ldi	r25, 0x00	; 0
    2b6a:	02 c0       	rjmp	.+4      	; 0x2b70 <vfprintf+0x362>
    2b6c:	88 e5       	ldi	r24, 0x58	; 88
    2b6e:	90 e0       	ldi	r25, 0x00	; 0
    2b70:	b6 01       	movw	r22, r12
    2b72:	0c c0       	rjmp	.+24     	; 0x2b8c <vfprintf+0x37e>
    2b74:	8a 2d       	mov	r24, r10
    2b76:	86 78       	andi	r24, 0x86	; 134
    2b78:	51 f0       	breq	.+20     	; 0x2b8e <vfprintf+0x380>
    2b7a:	a1 fe       	sbrs	r10, 1
    2b7c:	02 c0       	rjmp	.+4      	; 0x2b82 <vfprintf+0x374>
    2b7e:	8b e2       	ldi	r24, 0x2B	; 43
    2b80:	01 c0       	rjmp	.+2      	; 0x2b84 <vfprintf+0x376>
    2b82:	80 e2       	ldi	r24, 0x20	; 32
    2b84:	a7 fc       	sbrc	r10, 7
    2b86:	8d e2       	ldi	r24, 0x2D	; 45
    2b88:	b6 01       	movw	r22, r12
    2b8a:	90 e0       	ldi	r25, 0x00	; 0
    2b8c:	4d d0       	rcall	.+154    	; 0x2c28 <fputc>
    2b8e:	89 14       	cp	r8, r9
    2b90:	30 f4       	brcc	.+12     	; 0x2b9e <vfprintf+0x390>
    2b92:	b6 01       	movw	r22, r12
    2b94:	80 e3       	ldi	r24, 0x30	; 48
    2b96:	90 e0       	ldi	r25, 0x00	; 0
    2b98:	47 d0       	rcall	.+142    	; 0x2c28 <fputc>
    2b9a:	9a 94       	dec	r9
    2b9c:	f8 cf       	rjmp	.-16     	; 0x2b8e <vfprintf+0x380>
    2b9e:	8a 94       	dec	r8
    2ba0:	f3 01       	movw	r30, r6
    2ba2:	e8 0d       	add	r30, r8
    2ba4:	f1 1d       	adc	r31, r1
    2ba6:	80 81       	ld	r24, Z
    2ba8:	b6 01       	movw	r22, r12
    2baa:	90 e0       	ldi	r25, 0x00	; 0
    2bac:	3d d0       	rcall	.+122    	; 0x2c28 <fputc>
    2bae:	81 10       	cpse	r8, r1
    2bb0:	f6 cf       	rjmp	.-20     	; 0x2b9e <vfprintf+0x390>
    2bb2:	22 20       	and	r2, r2
    2bb4:	09 f4       	brne	.+2      	; 0x2bb8 <vfprintf+0x3aa>
    2bb6:	4e ce       	rjmp	.-868    	; 0x2854 <vfprintf+0x46>
    2bb8:	b6 01       	movw	r22, r12
    2bba:	80 e2       	ldi	r24, 0x20	; 32
    2bbc:	90 e0       	ldi	r25, 0x00	; 0
    2bbe:	34 d0       	rcall	.+104    	; 0x2c28 <fputc>
    2bc0:	2a 94       	dec	r2
    2bc2:	f7 cf       	rjmp	.-18     	; 0x2bb2 <vfprintf+0x3a4>
    2bc4:	f6 01       	movw	r30, r12
    2bc6:	86 81       	ldd	r24, Z+6	; 0x06
    2bc8:	97 81       	ldd	r25, Z+7	; 0x07
    2bca:	02 c0       	rjmp	.+4      	; 0x2bd0 <vfprintf+0x3c2>
    2bcc:	8f ef       	ldi	r24, 0xFF	; 255
    2bce:	9f ef       	ldi	r25, 0xFF	; 255
    2bd0:	2b 96       	adiw	r28, 0x0b	; 11
    2bd2:	cd bf       	out	0x3d, r28	; 61
    2bd4:	de bf       	out	0x3e, r29	; 62
    2bd6:	df 91       	pop	r29
    2bd8:	cf 91       	pop	r28
    2bda:	1f 91       	pop	r17
    2bdc:	0f 91       	pop	r16
    2bde:	ff 90       	pop	r15
    2be0:	ef 90       	pop	r14
    2be2:	df 90       	pop	r13
    2be4:	cf 90       	pop	r12
    2be6:	bf 90       	pop	r11
    2be8:	af 90       	pop	r10
    2bea:	9f 90       	pop	r9
    2bec:	8f 90       	pop	r8
    2bee:	7f 90       	pop	r7
    2bf0:	6f 90       	pop	r6
    2bf2:	5f 90       	pop	r5
    2bf4:	4f 90       	pop	r4
    2bf6:	3f 90       	pop	r3
    2bf8:	2f 90       	pop	r2
    2bfa:	08 95       	ret

00002bfc <strnlen_P>:
    2bfc:	fc 01       	movw	r30, r24
    2bfe:	05 90       	lpm	r0, Z+
    2c00:	61 50       	subi	r22, 0x01	; 1
    2c02:	70 40       	sbci	r23, 0x00	; 0
    2c04:	01 10       	cpse	r0, r1
    2c06:	d8 f7       	brcc	.-10     	; 0x2bfe <strnlen_P+0x2>
    2c08:	80 95       	com	r24
    2c0a:	90 95       	com	r25
    2c0c:	8e 0f       	add	r24, r30
    2c0e:	9f 1f       	adc	r25, r31
    2c10:	08 95       	ret

00002c12 <strnlen>:
    2c12:	fc 01       	movw	r30, r24
    2c14:	61 50       	subi	r22, 0x01	; 1
    2c16:	70 40       	sbci	r23, 0x00	; 0
    2c18:	01 90       	ld	r0, Z+
    2c1a:	01 10       	cpse	r0, r1
    2c1c:	d8 f7       	brcc	.-10     	; 0x2c14 <strnlen+0x2>
    2c1e:	80 95       	com	r24
    2c20:	90 95       	com	r25
    2c22:	8e 0f       	add	r24, r30
    2c24:	9f 1f       	adc	r25, r31
    2c26:	08 95       	ret

00002c28 <fputc>:
    2c28:	0f 93       	push	r16
    2c2a:	1f 93       	push	r17
    2c2c:	cf 93       	push	r28
    2c2e:	df 93       	push	r29
    2c30:	fb 01       	movw	r30, r22
    2c32:	23 81       	ldd	r18, Z+3	; 0x03
    2c34:	21 fd       	sbrc	r18, 1
    2c36:	03 c0       	rjmp	.+6      	; 0x2c3e <fputc+0x16>
    2c38:	8f ef       	ldi	r24, 0xFF	; 255
    2c3a:	9f ef       	ldi	r25, 0xFF	; 255
    2c3c:	2c c0       	rjmp	.+88     	; 0x2c96 <fputc+0x6e>
    2c3e:	22 ff       	sbrs	r18, 2
    2c40:	16 c0       	rjmp	.+44     	; 0x2c6e <fputc+0x46>
    2c42:	46 81       	ldd	r20, Z+6	; 0x06
    2c44:	57 81       	ldd	r21, Z+7	; 0x07
    2c46:	24 81       	ldd	r18, Z+4	; 0x04
    2c48:	35 81       	ldd	r19, Z+5	; 0x05
    2c4a:	42 17       	cp	r20, r18
    2c4c:	53 07       	cpc	r21, r19
    2c4e:	44 f4       	brge	.+16     	; 0x2c60 <fputc+0x38>
    2c50:	a0 81       	ld	r26, Z
    2c52:	b1 81       	ldd	r27, Z+1	; 0x01
    2c54:	9d 01       	movw	r18, r26
    2c56:	2f 5f       	subi	r18, 0xFF	; 255
    2c58:	3f 4f       	sbci	r19, 0xFF	; 255
    2c5a:	20 83       	st	Z, r18
    2c5c:	31 83       	std	Z+1, r19	; 0x01
    2c5e:	8c 93       	st	X, r24
    2c60:	26 81       	ldd	r18, Z+6	; 0x06
    2c62:	37 81       	ldd	r19, Z+7	; 0x07
    2c64:	2f 5f       	subi	r18, 0xFF	; 255
    2c66:	3f 4f       	sbci	r19, 0xFF	; 255
    2c68:	26 83       	std	Z+6, r18	; 0x06
    2c6a:	37 83       	std	Z+7, r19	; 0x07
    2c6c:	14 c0       	rjmp	.+40     	; 0x2c96 <fputc+0x6e>
    2c6e:	8b 01       	movw	r16, r22
    2c70:	ec 01       	movw	r28, r24
    2c72:	fb 01       	movw	r30, r22
    2c74:	00 84       	ldd	r0, Z+8	; 0x08
    2c76:	f1 85       	ldd	r31, Z+9	; 0x09
    2c78:	e0 2d       	mov	r30, r0
    2c7a:	19 95       	eicall
    2c7c:	89 2b       	or	r24, r25
    2c7e:	e1 f6       	brne	.-72     	; 0x2c38 <fputc+0x10>
    2c80:	d8 01       	movw	r26, r16
    2c82:	16 96       	adiw	r26, 0x06	; 6
    2c84:	8d 91       	ld	r24, X+
    2c86:	9c 91       	ld	r25, X
    2c88:	17 97       	sbiw	r26, 0x07	; 7
    2c8a:	01 96       	adiw	r24, 0x01	; 1
    2c8c:	16 96       	adiw	r26, 0x06	; 6
    2c8e:	8d 93       	st	X+, r24
    2c90:	9c 93       	st	X, r25
    2c92:	17 97       	sbiw	r26, 0x07	; 7
    2c94:	ce 01       	movw	r24, r28
    2c96:	df 91       	pop	r29
    2c98:	cf 91       	pop	r28
    2c9a:	1f 91       	pop	r17
    2c9c:	0f 91       	pop	r16
    2c9e:	08 95       	ret

00002ca0 <__ultoa_invert>:
    2ca0:	fa 01       	movw	r30, r20
    2ca2:	aa 27       	eor	r26, r26
    2ca4:	28 30       	cpi	r18, 0x08	; 8
    2ca6:	51 f1       	breq	.+84     	; 0x2cfc <__ultoa_invert+0x5c>
    2ca8:	20 31       	cpi	r18, 0x10	; 16
    2caa:	81 f1       	breq	.+96     	; 0x2d0c <__ultoa_invert+0x6c>
    2cac:	e8 94       	clt
    2cae:	6f 93       	push	r22
    2cb0:	6e 7f       	andi	r22, 0xFE	; 254
    2cb2:	6e 5f       	subi	r22, 0xFE	; 254
    2cb4:	7f 4f       	sbci	r23, 0xFF	; 255
    2cb6:	8f 4f       	sbci	r24, 0xFF	; 255
    2cb8:	9f 4f       	sbci	r25, 0xFF	; 255
    2cba:	af 4f       	sbci	r26, 0xFF	; 255
    2cbc:	b1 e0       	ldi	r27, 0x01	; 1
    2cbe:	3e d0       	rcall	.+124    	; 0x2d3c <__ultoa_invert+0x9c>
    2cc0:	b4 e0       	ldi	r27, 0x04	; 4
    2cc2:	3c d0       	rcall	.+120    	; 0x2d3c <__ultoa_invert+0x9c>
    2cc4:	67 0f       	add	r22, r23
    2cc6:	78 1f       	adc	r23, r24
    2cc8:	89 1f       	adc	r24, r25
    2cca:	9a 1f       	adc	r25, r26
    2ccc:	a1 1d       	adc	r26, r1
    2cce:	68 0f       	add	r22, r24
    2cd0:	79 1f       	adc	r23, r25
    2cd2:	8a 1f       	adc	r24, r26
    2cd4:	91 1d       	adc	r25, r1
    2cd6:	a1 1d       	adc	r26, r1
    2cd8:	6a 0f       	add	r22, r26
    2cda:	71 1d       	adc	r23, r1
    2cdc:	81 1d       	adc	r24, r1
    2cde:	91 1d       	adc	r25, r1
    2ce0:	a1 1d       	adc	r26, r1
    2ce2:	20 d0       	rcall	.+64     	; 0x2d24 <__ultoa_invert+0x84>
    2ce4:	09 f4       	brne	.+2      	; 0x2ce8 <__ultoa_invert+0x48>
    2ce6:	68 94       	set
    2ce8:	3f 91       	pop	r19
    2cea:	2a e0       	ldi	r18, 0x0A	; 10
    2cec:	26 9f       	mul	r18, r22
    2cee:	11 24       	eor	r1, r1
    2cf0:	30 19       	sub	r19, r0
    2cf2:	30 5d       	subi	r19, 0xD0	; 208
    2cf4:	31 93       	st	Z+, r19
    2cf6:	de f6       	brtc	.-74     	; 0x2cae <__ultoa_invert+0xe>
    2cf8:	cf 01       	movw	r24, r30
    2cfa:	08 95       	ret
    2cfc:	46 2f       	mov	r20, r22
    2cfe:	47 70       	andi	r20, 0x07	; 7
    2d00:	40 5d       	subi	r20, 0xD0	; 208
    2d02:	41 93       	st	Z+, r20
    2d04:	b3 e0       	ldi	r27, 0x03	; 3
    2d06:	0f d0       	rcall	.+30     	; 0x2d26 <__ultoa_invert+0x86>
    2d08:	c9 f7       	brne	.-14     	; 0x2cfc <__ultoa_invert+0x5c>
    2d0a:	f6 cf       	rjmp	.-20     	; 0x2cf8 <__ultoa_invert+0x58>
    2d0c:	46 2f       	mov	r20, r22
    2d0e:	4f 70       	andi	r20, 0x0F	; 15
    2d10:	40 5d       	subi	r20, 0xD0	; 208
    2d12:	4a 33       	cpi	r20, 0x3A	; 58
    2d14:	18 f0       	brcs	.+6      	; 0x2d1c <__ultoa_invert+0x7c>
    2d16:	49 5d       	subi	r20, 0xD9	; 217
    2d18:	31 fd       	sbrc	r19, 1
    2d1a:	40 52       	subi	r20, 0x20	; 32
    2d1c:	41 93       	st	Z+, r20
    2d1e:	02 d0       	rcall	.+4      	; 0x2d24 <__ultoa_invert+0x84>
    2d20:	a9 f7       	brne	.-22     	; 0x2d0c <__ultoa_invert+0x6c>
    2d22:	ea cf       	rjmp	.-44     	; 0x2cf8 <__ultoa_invert+0x58>
    2d24:	b4 e0       	ldi	r27, 0x04	; 4
    2d26:	a6 95       	lsr	r26
    2d28:	97 95       	ror	r25
    2d2a:	87 95       	ror	r24
    2d2c:	77 95       	ror	r23
    2d2e:	67 95       	ror	r22
    2d30:	ba 95       	dec	r27
    2d32:	c9 f7       	brne	.-14     	; 0x2d26 <__ultoa_invert+0x86>
    2d34:	00 97       	sbiw	r24, 0x00	; 0
    2d36:	61 05       	cpc	r22, r1
    2d38:	71 05       	cpc	r23, r1
    2d3a:	08 95       	ret
    2d3c:	9b 01       	movw	r18, r22
    2d3e:	ac 01       	movw	r20, r24
    2d40:	0a 2e       	mov	r0, r26
    2d42:	06 94       	lsr	r0
    2d44:	57 95       	ror	r21
    2d46:	47 95       	ror	r20
    2d48:	37 95       	ror	r19
    2d4a:	27 95       	ror	r18
    2d4c:	ba 95       	dec	r27
    2d4e:	c9 f7       	brne	.-14     	; 0x2d42 <__ultoa_invert+0xa2>
    2d50:	62 0f       	add	r22, r18
    2d52:	73 1f       	adc	r23, r19
    2d54:	84 1f       	adc	r24, r20
    2d56:	95 1f       	adc	r25, r21
    2d58:	a0 1d       	adc	r26, r0
    2d5a:	08 95       	ret

00002d5c <_exit>:
    2d5c:	f8 94       	cli

00002d5e <__stop_program>:
    2d5e:	ff cf       	rjmp	.-2      	; 0x2d5e <__stop_program>
